
firmware.elf:     file format elf32-littleriscv


Disassembly of section .text:

00000000 <start>:
       0:	1140006f          	jal	zero,114 <do_reset>
       4:	00000013          	addi	zero,zero,0
       8:	00000013          	addi	zero,zero,0
       c:	00000013          	addi	zero,zero,0

00000010 <trap_vector>:
      10:	34011173          	csrrw	sp,mscratch,sp
      14:	00112023          	sw	ra,0(sp)
      18:	00312223          	sw	gp,4(sp)
      1c:	00412423          	sw	tp,8(sp)
      20:	00512623          	sw	t0,12(sp)
      24:	00612823          	sw	t1,16(sp)
      28:	00712a23          	sw	t2,20(sp)
      2c:	00812c23          	sw	s0,24(sp)
      30:	00912e23          	sw	s1,28(sp)
      34:	02a12023          	sw	a0,32(sp)
      38:	02b12223          	sw	a1,36(sp)
      3c:	02c12423          	sw	a2,40(sp)
      40:	02d12623          	sw	a3,44(sp)
      44:	02e12823          	sw	a4,48(sp)
      48:	02f12a23          	sw	a5,52(sp)
      4c:	03012c23          	sw	a6,56(sp)
      50:	03112e23          	sw	a7,60(sp)
      54:	05212023          	sw	s2,64(sp)
      58:	05312223          	sw	s3,68(sp)
      5c:	05412423          	sw	s4,72(sp)
      60:	05512623          	sw	s5,76(sp)
      64:	05612823          	sw	s6,80(sp)
      68:	05712a23          	sw	s7,84(sp)
      6c:	05812c23          	sw	s8,88(sp)
      70:	05912e23          	sw	s9,92(sp)
      74:	07a12023          	sw	s10,96(sp)
      78:	07b12223          	sw	s11,100(sp)
      7c:	07c12423          	sw	t3,104(sp)
      80:	07d12623          	sw	t4,108(sp)
      84:	07e12823          	sw	t5,112(sp)
      88:	07f12a23          	sw	t6,116(sp)
      8c:	34203573          	csrrc	a0,mcause,zero
      90:	71d000ef          	jal	ra,fac <irq_handler>
      94:	00012083          	lw	ra,0(sp)
      98:	00412183          	lw	gp,4(sp)
      9c:	00812203          	lw	tp,8(sp)
      a0:	00c12283          	lw	t0,12(sp)
      a4:	01012303          	lw	t1,16(sp)
      a8:	01412383          	lw	t2,20(sp)
      ac:	01812403          	lw	s0,24(sp)
      b0:	01c12483          	lw	s1,28(sp)
      b4:	02012503          	lw	a0,32(sp)
      b8:	02412583          	lw	a1,36(sp)
      bc:	02812603          	lw	a2,40(sp)
      c0:	02c12683          	lw	a3,44(sp)
      c4:	03012703          	lw	a4,48(sp)
      c8:	03412783          	lw	a5,52(sp)
      cc:	03812803          	lw	a6,56(sp)
      d0:	03c12883          	lw	a7,60(sp)
      d4:	04012903          	lw	s2,64(sp)
      d8:	04412983          	lw	s3,68(sp)
      dc:	04812a03          	lw	s4,72(sp)
      e0:	04c12a83          	lw	s5,76(sp)
      e4:	05012b03          	lw	s6,80(sp)
      e8:	05412b83          	lw	s7,84(sp)
      ec:	05812c03          	lw	s8,88(sp)
      f0:	05c12c83          	lw	s9,92(sp)
      f4:	06012d03          	lw	s10,96(sp)
      f8:	06412d83          	lw	s11,100(sp)
      fc:	06812e03          	lw	t3,104(sp)
     100:	06c12e83          	lw	t4,108(sp)
     104:	07012f03          	lw	t5,112(sp)
     108:	07412f83          	lw	t6,116(sp)
     10c:	34011173          	csrrw	sp,mscratch,sp
     110:	30200073          	mret

00000114 <do_reset>:
     114:	00000093          	addi	ra,zero,0
     118:	00000113          	addi	sp,zero,0
     11c:	00000193          	addi	gp,zero,0
     120:	00000213          	addi	tp,zero,0
     124:	00000293          	addi	t0,zero,0
     128:	00000313          	addi	t1,zero,0
     12c:	00000393          	addi	t2,zero,0
     130:	00000413          	addi	s0,zero,0
     134:	00000493          	addi	s1,zero,0
     138:	00000513          	addi	a0,zero,0
     13c:	00000593          	addi	a1,zero,0
     140:	00000613          	addi	a2,zero,0
     144:	00000693          	addi	a3,zero,0
     148:	00000713          	addi	a4,zero,0
     14c:	00000793          	addi	a5,zero,0
     150:	00000813          	addi	a6,zero,0
     154:	00000893          	addi	a7,zero,0
     158:	00000913          	addi	s2,zero,0
     15c:	00000993          	addi	s3,zero,0
     160:	00000a13          	addi	s4,zero,0
     164:	00000a93          	addi	s5,zero,0
     168:	00000b13          	addi	s6,zero,0
     16c:	00000b93          	addi	s7,zero,0
     170:	00000c13          	addi	s8,zero,0
     174:	00000c93          	addi	s9,zero,0
     178:	00000d13          	addi	s10,zero,0
     17c:	00000d93          	addi	s11,zero,0
     180:	00000e13          	addi	t3,zero,0
     184:	00000e93          	addi	t4,zero,0
     188:	00000f13          	addi	t5,zero,0
     18c:	00000f93          	addi	t6,zero,0
     190:	deadc1b7          	lui	gp,0xdeadc
     194:	eef18193          	addi	gp,gp,-273 # deadbeef <a+0xdead8573>
     198:	00018213          	addi	tp,gp,0
     19c:	00001137          	lui	sp,0x1
     1a0:	00010113          	addi	sp,sp,0 # 1000 <main+0x2c>
     1a4:	34011073          	csrrw	zero,mscratch,sp
     1a8:	00000117          	auipc	sp,0x0
     1ac:	e6810113          	addi	sp,sp,-408 # 10 <trap_vector>
     1b0:	30511073          	csrrw	zero,mtvec,sp
     1b4:	30045073          	csrrwi	zero,mstatus,8
     1b8:	fff00113          	addi	sp,zero,-1
     1bc:	30411073          	csrrw	zero,mie,sp
     1c0:	00001137          	lui	sp,0x1
     1c4:	fe010113          	addi	sp,sp,-32 # fe0 <main+0xc>
     1c8:	60d000ef          	jal	ra,fd4 <main>
     1cc:	00100073          	ebreak
     1d0:	605000ef          	jal	ra,fd4 <main>
     1d4:	0540006f          	jal	zero,228 <done>

000001d8 <sw_mult>:
     1d8:	ff410113          	addi	sp,sp,-12
     1dc:	00112023          	sw	ra,0(sp)
     1e0:	00512223          	sw	t0,4(sp)
     1e4:	00612423          	sw	t1,8(sp)
     1e8:	00051463          	bne	a0,zero,1f0 <sw_mult_init>
     1ec:	0280006f          	jal	zero,214 <sw_mult_exit>

000001f0 <sw_mult_init>:
     1f0:	00058333          	add	t1,a1,zero
     1f4:	fff50293          	addi	t0,a0,-1
     1f8:	00029663          	bne	t0,zero,204 <sw_mult_loop>
     1fc:	00058533          	add	a0,a1,zero
     200:	0140006f          	jal	zero,214 <sw_mult_exit>

00000204 <sw_mult_loop>:
     204:	00b30333          	add	t1,t1,a1
     208:	fff28293          	addi	t0,t0,-1
     20c:	fe029ce3          	bne	t0,zero,204 <sw_mult_loop>
     210:	00030533          	add	a0,t1,zero

00000214 <sw_mult_exit>:
     214:	00012083          	lw	ra,0(sp)
     218:	00412283          	lw	t0,4(sp)
     21c:	00812303          	lw	t1,8(sp)
     220:	00c10113          	addi	sp,sp,12
     224:	00008067          	jalr	zero,0(ra)

00000228 <done>:
     228:	0000006f          	jal	zero,228 <done>

0000022c <error>:
     22c:	0000006f          	jal	zero,22c <error>

00000230 <convert>:
     230:	fe010113          	addi	sp,sp,-32
     234:	00112e23          	sw	ra,28(sp)
     238:	00812c23          	sw	s0,24(sp)
     23c:	02010413          	addi	s0,sp,32
     240:	fea42623          	sw	a0,-20(s0)
     244:	fec42783          	lw	a5,-20(s0)
     248:	fe078793          	addi	a5,a5,-32
     24c:	fef42623          	sw	a5,-20(s0)
     250:	00500593          	addi	a1,zero,5
     254:	fec42503          	lw	a0,-20(s0)
     258:	679000ef          	jal	ra,10d0 <umult>
     25c:	fea42623          	sw	a0,-20(s0)
     260:	00900593          	addi	a1,zero,9
     264:	fec42503          	lw	a0,-20(s0)
     268:	6dd000ef          	jal	ra,1144 <udiv>
     26c:	fea42623          	sw	a0,-20(s0)
     270:	fec42783          	lw	a5,-20(s0)
     274:	00078513          	addi	a0,a5,0
     278:	01c12083          	lw	ra,28(sp)
     27c:	01812403          	lw	s0,24(sp)
     280:	02010113          	addi	sp,sp,32
     284:	00008067          	jalr	zero,0(ra)

00000288 <initialize_previous_pixel>:
     288:	fe010113          	addi	sp,sp,-32
     28c:	00112e23          	sw	ra,28(sp)
     290:	00812c23          	sw	s0,24(sp)
     294:	02010413          	addi	s0,sp,32
     298:	fea42623          	sw	a0,-20(s0)
     29c:	feb42423          	sw	a1,-24(s0)
     2a0:	fec42223          	sw	a2,-28(s0)
     2a4:	fed42023          	sw	a3,-32(s0)
     2a8:	000047b7          	lui	a5,0x4
     2ac:	fec42703          	lw	a4,-20(s0)
     2b0:	94e7a823          	sw	a4,-1712(a5) # 3950 <previous_pixel_r>
     2b4:	000047b7          	lui	a5,0x4
     2b8:	fe842703          	lw	a4,-24(s0)
     2bc:	94e7aa23          	sw	a4,-1708(a5) # 3954 <previous_pixel_g>
     2c0:	000047b7          	lui	a5,0x4
     2c4:	fe442703          	lw	a4,-28(s0)
     2c8:	94e7ac23          	sw	a4,-1704(a5) # 3958 <previous_pixel_b>
     2cc:	000047b7          	lui	a5,0x4
     2d0:	fe042703          	lw	a4,-32(s0)
     2d4:	94e7ae23          	sw	a4,-1700(a5) # 395c <previous_pixel_a>
     2d8:	00000013          	addi	zero,zero,0
     2dc:	01c12083          	lw	ra,28(sp)
     2e0:	01812403          	lw	s0,24(sp)
     2e4:	02010113          	addi	sp,sp,32
     2e8:	00008067          	jalr	zero,0(ra)

000002ec <output_chunk8>:
     2ec:	fe010113          	addi	sp,sp,-32
     2f0:	00112e23          	sw	ra,28(sp)
     2f4:	00812c23          	sw	s0,24(sp)
     2f8:	02010413          	addi	s0,sp,32
     2fc:	00050793          	addi	a5,a0,0
     300:	fef407a3          	sb	a5,-17(s0)
     304:	fef44703          	lbu	a4,-17(s0)
     308:	000047b7          	lui	a5,0x4
     30c:	9607a783          	lw	a5,-1696(a5) # 3960 <chunk_index>
     310:	00300693          	addi	a3,zero,3
     314:	40f687b3          	sub	a5,a3,a5
     318:	00379793          	slli	a5,a5,0x3
     31c:	00f717b3          	sll	a5,a4,a5
     320:	00078713          	addi	a4,a5,0
     324:	000047b7          	lui	a5,0x4
     328:	9647a783          	lw	a5,-1692(a5) # 3964 <chunk_output>
     32c:	00f70733          	add	a4,a4,a5
     330:	000047b7          	lui	a5,0x4
     334:	96e7a223          	sw	a4,-1692(a5) # 3964 <chunk_output>
     338:	000047b7          	lui	a5,0x4
     33c:	9607a703          	lw	a4,-1696(a5) # 3960 <chunk_index>
     340:	00300793          	addi	a5,zero,3
     344:	02f71463          	bne	a4,a5,36c <output_chunk8+0x80>
     348:	800007b7          	lui	a5,0x80000
     34c:	00004737          	lui	a4,0x4
     350:	96472703          	lw	a4,-1692(a4) # 3964 <chunk_output>
     354:	00e7a023          	sw	a4,0(a5) # 80000000 <a+0x7fffc684>
     358:	000047b7          	lui	a5,0x4
     35c:	9607a023          	sw	zero,-1696(a5) # 3960 <chunk_index>
     360:	000047b7          	lui	a5,0x4
     364:	9607a223          	sw	zero,-1692(a5) # 3964 <chunk_output>
     368:	01c0006f          	jal	zero,384 <output_chunk8+0x98>
     36c:	000047b7          	lui	a5,0x4
     370:	9607a783          	lw	a5,-1696(a5) # 3960 <chunk_index>
     374:	00178713          	addi	a4,a5,1
     378:	000047b7          	lui	a5,0x4
     37c:	96e7a023          	sw	a4,-1696(a5) # 3960 <chunk_index>
     380:	00000013          	addi	zero,zero,0
     384:	01c12083          	lw	ra,28(sp)
     388:	01812403          	lw	s0,24(sp)
     38c:	02010113          	addi	sp,sp,32
     390:	00008067          	jalr	zero,0(ra)

00000394 <output_chunk32>:
     394:	fd010113          	addi	sp,sp,-48
     398:	02112623          	sw	ra,44(sp)
     39c:	02812423          	sw	s0,40(sp)
     3a0:	03010413          	addi	s0,sp,48
     3a4:	fca42e23          	sw	a0,-36(s0)
     3a8:	fdc42783          	lw	a5,-36(s0)
     3ac:	0187d793          	srli	a5,a5,0x18
     3b0:	fef42623          	sw	a5,-20(s0)
     3b4:	fec42783          	lw	a5,-20(s0)
     3b8:	0ff7f793          	andi	a5,a5,255
     3bc:	00078513          	addi	a0,a5,0
     3c0:	f2dff0ef          	jal	ra,2ec <output_chunk8>
     3c4:	fdc42783          	lw	a5,-36(s0)
     3c8:	0107d793          	srli	a5,a5,0x10
     3cc:	0ff7f793          	andi	a5,a5,255
     3d0:	fef42623          	sw	a5,-20(s0)
     3d4:	fec42783          	lw	a5,-20(s0)
     3d8:	0ff7f793          	andi	a5,a5,255
     3dc:	00078513          	addi	a0,a5,0
     3e0:	f0dff0ef          	jal	ra,2ec <output_chunk8>
     3e4:	fdc42783          	lw	a5,-36(s0)
     3e8:	0087d793          	srli	a5,a5,0x8
     3ec:	0ff7f793          	andi	a5,a5,255
     3f0:	fef42623          	sw	a5,-20(s0)
     3f4:	fec42783          	lw	a5,-20(s0)
     3f8:	0ff7f793          	andi	a5,a5,255
     3fc:	00078513          	addi	a0,a5,0
     400:	eedff0ef          	jal	ra,2ec <output_chunk8>
     404:	fdc42783          	lw	a5,-36(s0)
     408:	0ff7f793          	andi	a5,a5,255
     40c:	fef42623          	sw	a5,-20(s0)
     410:	fec42783          	lw	a5,-20(s0)
     414:	0ff7f793          	andi	a5,a5,255
     418:	00078513          	addi	a0,a5,0
     41c:	ed1ff0ef          	jal	ra,2ec <output_chunk8>
     420:	00000013          	addi	zero,zero,0
     424:	02c12083          	lw	ra,44(sp)
     428:	02812403          	lw	s0,40(sp)
     42c:	03010113          	addi	sp,sp,48
     430:	00008067          	jalr	zero,0(ra)

00000434 <reverse_endian>:
     434:	fd010113          	addi	sp,sp,-48
     438:	02112623          	sw	ra,44(sp)
     43c:	02812423          	sw	s0,40(sp)
     440:	03010413          	addi	s0,sp,48
     444:	fca42e23          	sw	a0,-36(s0)
     448:	fe042623          	sw	zero,-20(s0)
     44c:	fdc42783          	lw	a5,-36(s0)
     450:	01879793          	slli	a5,a5,0x18
     454:	fec42703          	lw	a4,-20(s0)
     458:	00f707b3          	add	a5,a4,a5
     45c:	fef42623          	sw	a5,-20(s0)
     460:	fdc42783          	lw	a5,-36(s0)
     464:	00879713          	slli	a4,a5,0x8
     468:	00ff07b7          	lui	a5,0xff0
     46c:	00f777b3          	and	a5,a4,a5
     470:	fec42703          	lw	a4,-20(s0)
     474:	00f707b3          	add	a5,a4,a5
     478:	fef42623          	sw	a5,-20(s0)
     47c:	fdc42783          	lw	a5,-36(s0)
     480:	0087d713          	srli	a4,a5,0x8
     484:	000107b7          	lui	a5,0x10
     488:	f0078793          	addi	a5,a5,-256 # ff00 <a+0xc584>
     48c:	00f777b3          	and	a5,a4,a5
     490:	fec42703          	lw	a4,-20(s0)
     494:	00f707b3          	add	a5,a4,a5
     498:	fef42623          	sw	a5,-20(s0)
     49c:	fdc42783          	lw	a5,-36(s0)
     4a0:	0187d793          	srli	a5,a5,0x18
     4a4:	fec42703          	lw	a4,-20(s0)
     4a8:	00f707b3          	add	a5,a4,a5
     4ac:	fef42623          	sw	a5,-20(s0)
     4b0:	fec42783          	lw	a5,-20(s0)
     4b4:	00078513          	addi	a0,a5,0
     4b8:	02c12083          	lw	ra,44(sp)
     4bc:	02812403          	lw	s0,40(sp)
     4c0:	03010113          	addi	sp,sp,48
     4c4:	00008067          	jalr	zero,0(ra)

000004c8 <output_header>:
     4c8:	fe010113          	addi	sp,sp,-32
     4cc:	00112e23          	sw	ra,28(sp)
     4d0:	00812c23          	sw	s0,24(sp)
     4d4:	02010413          	addi	s0,sp,32
     4d8:	fea42623          	sw	a0,-20(s0)
     4dc:	feb42423          	sw	a1,-24(s0)
     4e0:	fec42223          	sw	a2,-28(s0)
     4e4:	fed42023          	sw	a3,-32(s0)
     4e8:	0ff00693          	addi	a3,zero,255
     4ec:	00000613          	addi	a2,zero,0
     4f0:	00000593          	addi	a1,zero,0
     4f4:	00000513          	addi	a0,zero,0
     4f8:	d91ff0ef          	jal	ra,288 <initialize_previous_pixel>
     4fc:	07100513          	addi	a0,zero,113
     500:	160010ef          	jal	ra,1660 <print_chr>
     504:	06f00513          	addi	a0,zero,111
     508:	158010ef          	jal	ra,1660 <print_chr>
     50c:	06900513          	addi	a0,zero,105
     510:	150010ef          	jal	ra,1660 <print_chr>
     514:	06600513          	addi	a0,zero,102
     518:	148010ef          	jal	ra,1660 <print_chr>
     51c:	fec42783          	lw	a5,-20(s0)
     520:	0187d793          	srli	a5,a5,0x18
     524:	0ff7f793          	andi	a5,a5,255
     528:	00078513          	addi	a0,a5,0
     52c:	134010ef          	jal	ra,1660 <print_chr>
     530:	fec42783          	lw	a5,-20(s0)
     534:	0107d793          	srli	a5,a5,0x10
     538:	0ff7f793          	andi	a5,a5,255
     53c:	00078513          	addi	a0,a5,0
     540:	120010ef          	jal	ra,1660 <print_chr>
     544:	fec42783          	lw	a5,-20(s0)
     548:	0087d793          	srli	a5,a5,0x8
     54c:	0ff7f793          	andi	a5,a5,255
     550:	00078513          	addi	a0,a5,0
     554:	10c010ef          	jal	ra,1660 <print_chr>
     558:	fec42783          	lw	a5,-20(s0)
     55c:	0ff7f793          	andi	a5,a5,255
     560:	00078513          	addi	a0,a5,0
     564:	0fc010ef          	jal	ra,1660 <print_chr>
     568:	fe842783          	lw	a5,-24(s0)
     56c:	0187d793          	srli	a5,a5,0x18
     570:	0ff7f793          	andi	a5,a5,255
     574:	00078513          	addi	a0,a5,0
     578:	0e8010ef          	jal	ra,1660 <print_chr>
     57c:	fe842783          	lw	a5,-24(s0)
     580:	0107d793          	srli	a5,a5,0x10
     584:	0ff7f793          	andi	a5,a5,255
     588:	00078513          	addi	a0,a5,0
     58c:	0d4010ef          	jal	ra,1660 <print_chr>
     590:	fe842783          	lw	a5,-24(s0)
     594:	0087d793          	srli	a5,a5,0x8
     598:	0ff7f793          	andi	a5,a5,255
     59c:	00078513          	addi	a0,a5,0
     5a0:	0c0010ef          	jal	ra,1660 <print_chr>
     5a4:	fe842783          	lw	a5,-24(s0)
     5a8:	0ff7f793          	andi	a5,a5,255
     5ac:	00078513          	addi	a0,a5,0
     5b0:	0b0010ef          	jal	ra,1660 <print_chr>
     5b4:	fe442783          	lw	a5,-28(s0)
     5b8:	0ff7f793          	andi	a5,a5,255
     5bc:	00078513          	addi	a0,a5,0
     5c0:	0a0010ef          	jal	ra,1660 <print_chr>
     5c4:	fe042783          	lw	a5,-32(s0)
     5c8:	0ff7f793          	andi	a5,a5,255
     5cc:	00078513          	addi	a0,a5,0
     5d0:	090010ef          	jal	ra,1660 <print_chr>
     5d4:	00000013          	addi	zero,zero,0
     5d8:	01c12083          	lw	ra,28(sp)
     5dc:	01812403          	lw	s0,24(sp)
     5e0:	02010113          	addi	sp,sp,32
     5e4:	00008067          	jalr	zero,0(ra)

000005e8 <compare_pixels>:
     5e8:	fd010113          	addi	sp,sp,-48
     5ec:	02112623          	sw	ra,44(sp)
     5f0:	02812423          	sw	s0,40(sp)
     5f4:	03010413          	addi	s0,sp,48
     5f8:	fea42623          	sw	a0,-20(s0)
     5fc:	feb42423          	sw	a1,-24(s0)
     600:	fec42223          	sw	a2,-28(s0)
     604:	fed42023          	sw	a3,-32(s0)
     608:	fce42e23          	sw	a4,-36(s0)
     60c:	fcf42c23          	sw	a5,-40(s0)
     610:	fd042a23          	sw	a6,-44(s0)
     614:	fd142823          	sw	a7,-48(s0)
     618:	fec42703          	lw	a4,-20(s0)
     61c:	fdc42783          	lw	a5,-36(s0)
     620:	00f70663          	beq	a4,a5,62c <compare_pixels+0x44>
     624:	00000793          	addi	a5,zero,0
     628:	0440006f          	jal	zero,66c <compare_pixels+0x84>
     62c:	fe842703          	lw	a4,-24(s0)
     630:	fd842783          	lw	a5,-40(s0)
     634:	00f70663          	beq	a4,a5,640 <compare_pixels+0x58>
     638:	00000793          	addi	a5,zero,0
     63c:	0300006f          	jal	zero,66c <compare_pixels+0x84>
     640:	fe442703          	lw	a4,-28(s0)
     644:	fd442783          	lw	a5,-44(s0)
     648:	00f70663          	beq	a4,a5,654 <compare_pixels+0x6c>
     64c:	00000793          	addi	a5,zero,0
     650:	01c0006f          	jal	zero,66c <compare_pixels+0x84>
     654:	fe042703          	lw	a4,-32(s0)
     658:	fd042783          	lw	a5,-48(s0)
     65c:	00f70663          	beq	a4,a5,668 <compare_pixels+0x80>
     660:	00000793          	addi	a5,zero,0
     664:	0080006f          	jal	zero,66c <compare_pixels+0x84>
     668:	00100793          	addi	a5,zero,1
     66c:	00078513          	addi	a0,a5,0
     670:	02c12083          	lw	ra,44(sp)
     674:	02812403          	lw	s0,40(sp)
     678:	03010113          	addi	sp,sp,48
     67c:	00008067          	jalr	zero,0(ra)

00000680 <run_chunk>:
     680:	fd010113          	addi	sp,sp,-48
     684:	02112623          	sw	ra,44(sp)
     688:	02812423          	sw	s0,40(sp)
     68c:	03010413          	addi	s0,sp,48
     690:	fca42e23          	sw	a0,-36(s0)
     694:	fcb42c23          	sw	a1,-40(s0)
     698:	fcc42a23          	sw	a2,-44(s0)
     69c:	fcd42823          	sw	a3,-48(s0)
     6a0:	000047b7          	lui	a5,0x4
     6a4:	9507a703          	lw	a4,-1712(a5) # 3950 <previous_pixel_r>
     6a8:	000047b7          	lui	a5,0x4
     6ac:	9547a683          	lw	a3,-1708(a5) # 3954 <previous_pixel_g>
     6b0:	000047b7          	lui	a5,0x4
     6b4:	9587a603          	lw	a2,-1704(a5) # 3958 <previous_pixel_b>
     6b8:	000047b7          	lui	a5,0x4
     6bc:	95c7a783          	lw	a5,-1700(a5) # 395c <previous_pixel_a>
     6c0:	00078893          	addi	a7,a5,0
     6c4:	00060813          	addi	a6,a2,0
     6c8:	00068793          	addi	a5,a3,0
     6cc:	fd042683          	lw	a3,-48(s0)
     6d0:	fd442603          	lw	a2,-44(s0)
     6d4:	fd842583          	lw	a1,-40(s0)
     6d8:	fdc42503          	lw	a0,-36(s0)
     6dc:	f0dff0ef          	jal	ra,5e8 <compare_pixels>
     6e0:	00050793          	addi	a5,a0,0
     6e4:	06078063          	beq	a5,zero,744 <run_chunk+0xc4>
     6e8:	000047b7          	lui	a5,0x4
     6ec:	9687a703          	lw	a4,-1688(a5) # 3968 <RLE>
     6f0:	03f00793          	addi	a5,zero,63
     6f4:	04e7e863          	bltu	a5,a4,744 <run_chunk+0xc4>
     6f8:	000047b7          	lui	a5,0x4
     6fc:	9687a783          	lw	a5,-1688(a5) # 3968 <RLE>
     700:	00178713          	addi	a4,a5,1
     704:	000047b7          	lui	a5,0x4
     708:	96e7a423          	sw	a4,-1688(a5) # 3968 <RLE>
     70c:	000047b7          	lui	a5,0x4
     710:	fdc42703          	lw	a4,-36(s0)
     714:	94e7a823          	sw	a4,-1712(a5) # 3950 <previous_pixel_r>
     718:	000047b7          	lui	a5,0x4
     71c:	fd842703          	lw	a4,-40(s0)
     720:	94e7aa23          	sw	a4,-1708(a5) # 3954 <previous_pixel_g>
     724:	000047b7          	lui	a5,0x4
     728:	fd442703          	lw	a4,-44(s0)
     72c:	94e7ac23          	sw	a4,-1704(a5) # 3958 <previous_pixel_b>
     730:	000047b7          	lui	a5,0x4
     734:	fd042703          	lw	a4,-48(s0)
     738:	94e7ae23          	sw	a4,-1700(a5) # 395c <previous_pixel_a>
     73c:	00100793          	addi	a5,zero,1
     740:	03c0006f          	jal	zero,77c <run_chunk+0xfc>
     744:	000047b7          	lui	a5,0x4
     748:	9687a783          	lw	a5,-1688(a5) # 3968 <RLE>
     74c:	02078663          	beq	a5,zero,778 <run_chunk+0xf8>
     750:	000047b7          	lui	a5,0x4
     754:	9687a783          	lw	a5,-1688(a5) # 3968 <RLE>
     758:	0bf78793          	addi	a5,a5,191
     75c:	fef42623          	sw	a5,-20(s0)
     760:	fec42783          	lw	a5,-20(s0)
     764:	0ff7f793          	andi	a5,a5,255
     768:	00078513          	addi	a0,a5,0
     76c:	6f5000ef          	jal	ra,1660 <print_chr>
     770:	000047b7          	lui	a5,0x4
     774:	9607a423          	sw	zero,-1688(a5) # 3968 <RLE>
     778:	00000793          	addi	a5,zero,0
     77c:	00078513          	addi	a0,a5,0
     780:	02c12083          	lw	ra,44(sp)
     784:	02812403          	lw	s0,40(sp)
     788:	03010113          	addi	sp,sp,48
     78c:	00008067          	jalr	zero,0(ra)

00000790 <get_hash>:
     790:	fe010113          	addi	sp,sp,-32
     794:	00112e23          	sw	ra,28(sp)
     798:	00812c23          	sw	s0,24(sp)
     79c:	00912a23          	sw	s1,20(sp)
     7a0:	02010413          	addi	s0,sp,32
     7a4:	fea42623          	sw	a0,-20(s0)
     7a8:	feb42423          	sw	a1,-24(s0)
     7ac:	fec42223          	sw	a2,-28(s0)
     7b0:	fed42023          	sw	a3,-32(s0)
     7b4:	fec42583          	lw	a1,-20(s0)
     7b8:	00300513          	addi	a0,zero,3
     7bc:	a1dff0ef          	jal	ra,1d8 <sw_mult>
     7c0:	00050493          	addi	s1,a0,0
     7c4:	fe842583          	lw	a1,-24(s0)
     7c8:	00500513          	addi	a0,zero,5
     7cc:	a0dff0ef          	jal	ra,1d8 <sw_mult>
     7d0:	00050793          	addi	a5,a0,0
     7d4:	00f484b3          	add	s1,s1,a5
     7d8:	fe442583          	lw	a1,-28(s0)
     7dc:	00700513          	addi	a0,zero,7
     7e0:	9f9ff0ef          	jal	ra,1d8 <sw_mult>
     7e4:	00050793          	addi	a5,a0,0
     7e8:	00f484b3          	add	s1,s1,a5
     7ec:	fe042583          	lw	a1,-32(s0)
     7f0:	00b00513          	addi	a0,zero,11
     7f4:	9e5ff0ef          	jal	ra,1d8 <sw_mult>
     7f8:	00050793          	addi	a5,a0,0
     7fc:	00f487b3          	add	a5,s1,a5
     800:	03f7f793          	andi	a5,a5,63
     804:	00078513          	addi	a0,a5,0
     808:	01c12083          	lw	ra,28(sp)
     80c:	01812403          	lw	s0,24(sp)
     810:	01412483          	lw	s1,20(sp)
     814:	02010113          	addi	sp,sp,32
     818:	00008067          	jalr	zero,0(ra)

0000081c <index_chunk>:
     81c:	fd010113          	addi	sp,sp,-48
     820:	02112623          	sw	ra,44(sp)
     824:	02812423          	sw	s0,40(sp)
     828:	03010413          	addi	s0,sp,48
     82c:	fca42e23          	sw	a0,-36(s0)
     830:	fcb42c23          	sw	a1,-40(s0)
     834:	fcc42a23          	sw	a2,-44(s0)
     838:	fcd42823          	sw	a3,-48(s0)
     83c:	fd042683          	lw	a3,-48(s0)
     840:	fd442603          	lw	a2,-44(s0)
     844:	fd842583          	lw	a1,-40(s0)
     848:	fdc42503          	lw	a0,-36(s0)
     84c:	f45ff0ef          	jal	ra,790 <get_hash>
     850:	fea42623          	sw	a0,-20(s0)
     854:	000037b7          	lui	a5,0x3
     858:	55078713          	addi	a4,a5,1360 # 3550 <RA>
     85c:	fec42783          	lw	a5,-20(s0)
     860:	00479793          	slli	a5,a5,0x4
     864:	00f707b3          	add	a5,a4,a5
     868:	0007a503          	lw	a0,0(a5)
     86c:	000037b7          	lui	a5,0x3
     870:	55078713          	addi	a4,a5,1360 # 3550 <RA>
     874:	fec42783          	lw	a5,-20(s0)
     878:	00479793          	slli	a5,a5,0x4
     87c:	00f707b3          	add	a5,a4,a5
     880:	0047a583          	lw	a1,4(a5)
     884:	000037b7          	lui	a5,0x3
     888:	55078713          	addi	a4,a5,1360 # 3550 <RA>
     88c:	fec42783          	lw	a5,-20(s0)
     890:	00479793          	slli	a5,a5,0x4
     894:	00f707b3          	add	a5,a4,a5
     898:	0087a603          	lw	a2,8(a5)
     89c:	000037b7          	lui	a5,0x3
     8a0:	55078713          	addi	a4,a5,1360 # 3550 <RA>
     8a4:	fec42783          	lw	a5,-20(s0)
     8a8:	00479793          	slli	a5,a5,0x4
     8ac:	00f707b3          	add	a5,a4,a5
     8b0:	00c7a683          	lw	a3,12(a5)
     8b4:	fd042883          	lw	a7,-48(s0)
     8b8:	fd442803          	lw	a6,-44(s0)
     8bc:	fd842783          	lw	a5,-40(s0)
     8c0:	fdc42703          	lw	a4,-36(s0)
     8c4:	d25ff0ef          	jal	ra,5e8 <compare_pixels>
     8c8:	00050793          	addi	a5,a0,0
     8cc:	04078c63          	beq	a5,zero,924 <index_chunk+0x108>
     8d0:	fec42783          	lw	a5,-20(s0)
     8d4:	03f7f793          	andi	a5,a5,63
     8d8:	fef42423          	sw	a5,-24(s0)
     8dc:	fe842783          	lw	a5,-24(s0)
     8e0:	0ff7f793          	andi	a5,a5,255
     8e4:	00078513          	addi	a0,a5,0
     8e8:	579000ef          	jal	ra,1660 <print_chr>
     8ec:	000047b7          	lui	a5,0x4
     8f0:	fdc42703          	lw	a4,-36(s0)
     8f4:	94e7a823          	sw	a4,-1712(a5) # 3950 <previous_pixel_r>
     8f8:	000047b7          	lui	a5,0x4
     8fc:	fd842703          	lw	a4,-40(s0)
     900:	94e7aa23          	sw	a4,-1708(a5) # 3954 <previous_pixel_g>
     904:	000047b7          	lui	a5,0x4
     908:	fd442703          	lw	a4,-44(s0)
     90c:	94e7ac23          	sw	a4,-1704(a5) # 3958 <previous_pixel_b>
     910:	000047b7          	lui	a5,0x4
     914:	fd042703          	lw	a4,-48(s0)
     918:	94e7ae23          	sw	a4,-1700(a5) # 395c <previous_pixel_a>
     91c:	00100793          	addi	a5,zero,1
     920:	0780006f          	jal	zero,998 <index_chunk+0x17c>
     924:	000037b7          	lui	a5,0x3
     928:	55078713          	addi	a4,a5,1360 # 3550 <RA>
     92c:	fec42783          	lw	a5,-20(s0)
     930:	00479793          	slli	a5,a5,0x4
     934:	00f707b3          	add	a5,a4,a5
     938:	fdc42703          	lw	a4,-36(s0)
     93c:	00e7a023          	sw	a4,0(a5)
     940:	000037b7          	lui	a5,0x3
     944:	55078713          	addi	a4,a5,1360 # 3550 <RA>
     948:	fec42783          	lw	a5,-20(s0)
     94c:	00479793          	slli	a5,a5,0x4
     950:	00f707b3          	add	a5,a4,a5
     954:	fd842703          	lw	a4,-40(s0)
     958:	00e7a223          	sw	a4,4(a5)
     95c:	000037b7          	lui	a5,0x3
     960:	55078713          	addi	a4,a5,1360 # 3550 <RA>
     964:	fec42783          	lw	a5,-20(s0)
     968:	00479793          	slli	a5,a5,0x4
     96c:	00f707b3          	add	a5,a4,a5
     970:	fd442703          	lw	a4,-44(s0)
     974:	00e7a423          	sw	a4,8(a5)
     978:	000037b7          	lui	a5,0x3
     97c:	55078713          	addi	a4,a5,1360 # 3550 <RA>
     980:	fec42783          	lw	a5,-20(s0)
     984:	00479793          	slli	a5,a5,0x4
     988:	00f707b3          	add	a5,a4,a5
     98c:	fd042703          	lw	a4,-48(s0)
     990:	00e7a623          	sw	a4,12(a5)
     994:	00000793          	addi	a5,zero,0
     998:	00078513          	addi	a0,a5,0
     99c:	02c12083          	lw	ra,44(sp)
     9a0:	02812403          	lw	s0,40(sp)
     9a4:	03010113          	addi	sp,sp,48
     9a8:	00008067          	jalr	zero,0(ra)

000009ac <diff_chunk>:
     9ac:	fc010113          	addi	sp,sp,-64
     9b0:	02112e23          	sw	ra,60(sp)
     9b4:	02812c23          	sw	s0,56(sp)
     9b8:	04010413          	addi	s0,sp,64
     9bc:	fca42623          	sw	a0,-52(s0)
     9c0:	fcb42423          	sw	a1,-56(s0)
     9c4:	fcc42223          	sw	a2,-60(s0)
     9c8:	fcd42023          	sw	a3,-64(s0)
     9cc:	000047b7          	lui	a5,0x4
     9d0:	9507a783          	lw	a5,-1712(a5) # 3950 <previous_pixel_r>
     9d4:	fcc42703          	lw	a4,-52(s0)
     9d8:	40f707b3          	sub	a5,a4,a5
     9dc:	00278793          	addi	a5,a5,2
     9e0:	0ff7f793          	andi	a5,a5,255
     9e4:	fef42623          	sw	a5,-20(s0)
     9e8:	000047b7          	lui	a5,0x4
     9ec:	9547a783          	lw	a5,-1708(a5) # 3954 <previous_pixel_g>
     9f0:	fc842703          	lw	a4,-56(s0)
     9f4:	40f707b3          	sub	a5,a4,a5
     9f8:	00278793          	addi	a5,a5,2
     9fc:	0ff7f793          	andi	a5,a5,255
     a00:	fef42423          	sw	a5,-24(s0)
     a04:	000047b7          	lui	a5,0x4
     a08:	9587a783          	lw	a5,-1704(a5) # 3958 <previous_pixel_b>
     a0c:	fc442703          	lw	a4,-60(s0)
     a10:	40f707b3          	sub	a5,a4,a5
     a14:	00278793          	addi	a5,a5,2
     a18:	0ff7f793          	andi	a5,a5,255
     a1c:	fef42223          	sw	a5,-28(s0)
     a20:	fec42703          	lw	a4,-20(s0)
     a24:	00300793          	addi	a5,zero,3
     a28:	00e7f663          	bgeu	a5,a4,a34 <diff_chunk+0x88>
     a2c:	00000793          	addi	a5,zero,0
     a30:	0c40006f          	jal	zero,af4 <diff_chunk+0x148>
     a34:	fe842703          	lw	a4,-24(s0)
     a38:	00300793          	addi	a5,zero,3
     a3c:	00e7f663          	bgeu	a5,a4,a48 <diff_chunk+0x9c>
     a40:	00000793          	addi	a5,zero,0
     a44:	0b00006f          	jal	zero,af4 <diff_chunk+0x148>
     a48:	fe442703          	lw	a4,-28(s0)
     a4c:	00300793          	addi	a5,zero,3
     a50:	00e7f663          	bgeu	a5,a4,a5c <diff_chunk+0xb0>
     a54:	00000793          	addi	a5,zero,0
     a58:	09c0006f          	jal	zero,af4 <diff_chunk+0x148>
     a5c:	fec42783          	lw	a5,-20(s0)
     a60:	00479793          	slli	a5,a5,0x4
     a64:	0307f793          	andi	a5,a5,48
     a68:	fef42623          	sw	a5,-20(s0)
     a6c:	fe842783          	lw	a5,-24(s0)
     a70:	00279793          	slli	a5,a5,0x2
     a74:	00c7f793          	andi	a5,a5,12
     a78:	fef42423          	sw	a5,-24(s0)
     a7c:	fe442783          	lw	a5,-28(s0)
     a80:	0037f793          	andi	a5,a5,3
     a84:	fef42223          	sw	a5,-28(s0)
     a88:	04000793          	addi	a5,zero,64
     a8c:	fef42023          	sw	a5,-32(s0)
     a90:	fec42703          	lw	a4,-20(s0)
     a94:	fe842783          	lw	a5,-24(s0)
     a98:	00f70733          	add	a4,a4,a5
     a9c:	fe442783          	lw	a5,-28(s0)
     aa0:	00f707b3          	add	a5,a4,a5
     aa4:	fe042703          	lw	a4,-32(s0)
     aa8:	00f707b3          	add	a5,a4,a5
     aac:	fcf42e23          	sw	a5,-36(s0)
     ab0:	fdc42783          	lw	a5,-36(s0)
     ab4:	0ff7f793          	andi	a5,a5,255
     ab8:	00078513          	addi	a0,a5,0
     abc:	3a5000ef          	jal	ra,1660 <print_chr>
     ac0:	000047b7          	lui	a5,0x4
     ac4:	fcc42703          	lw	a4,-52(s0)
     ac8:	94e7a823          	sw	a4,-1712(a5) # 3950 <previous_pixel_r>
     acc:	000047b7          	lui	a5,0x4
     ad0:	fc842703          	lw	a4,-56(s0)
     ad4:	94e7aa23          	sw	a4,-1708(a5) # 3954 <previous_pixel_g>
     ad8:	000047b7          	lui	a5,0x4
     adc:	fc442703          	lw	a4,-60(s0)
     ae0:	94e7ac23          	sw	a4,-1704(a5) # 3958 <previous_pixel_b>
     ae4:	000047b7          	lui	a5,0x4
     ae8:	fc042703          	lw	a4,-64(s0)
     aec:	94e7ae23          	sw	a4,-1700(a5) # 395c <previous_pixel_a>
     af0:	00100793          	addi	a5,zero,1
     af4:	00078513          	addi	a0,a5,0
     af8:	03c12083          	lw	ra,60(sp)
     afc:	03812403          	lw	s0,56(sp)
     b00:	04010113          	addi	sp,sp,64
     b04:	00008067          	jalr	zero,0(ra)

00000b08 <luma_chunk>:
     b08:	fd010113          	addi	sp,sp,-48
     b0c:	02112623          	sw	ra,44(sp)
     b10:	02812423          	sw	s0,40(sp)
     b14:	03010413          	addi	s0,sp,48
     b18:	fca42e23          	sw	a0,-36(s0)
     b1c:	fcb42c23          	sw	a1,-40(s0)
     b20:	fcc42a23          	sw	a2,-44(s0)
     b24:	fcd42823          	sw	a3,-48(s0)
     b28:	000047b7          	lui	a5,0x4
     b2c:	9547a783          	lw	a5,-1708(a5) # 3954 <previous_pixel_g>
     b30:	fd842703          	lw	a4,-40(s0)
     b34:	40f707b3          	sub	a5,a4,a5
     b38:	02078793          	addi	a5,a5,32
     b3c:	0ff7f793          	andi	a5,a5,255
     b40:	fef42623          	sw	a5,-20(s0)
     b44:	fec42703          	lw	a4,-20(s0)
     b48:	03f00793          	addi	a5,zero,63
     b4c:	00e7f663          	bgeu	a5,a4,b58 <luma_chunk+0x50>
     b50:	00000793          	addi	a5,zero,0
     b54:	1180006f          	jal	zero,c6c <luma_chunk+0x164>
     b58:	000047b7          	lui	a5,0x4
     b5c:	9507a783          	lw	a5,-1712(a5) # 3950 <previous_pixel_r>
     b60:	fdc42703          	lw	a4,-36(s0)
     b64:	40f70733          	sub	a4,a4,a5
     b68:	000047b7          	lui	a5,0x4
     b6c:	9547a683          	lw	a3,-1708(a5) # 3954 <previous_pixel_g>
     b70:	fd842783          	lw	a5,-40(s0)
     b74:	40f687b3          	sub	a5,a3,a5
     b78:	00f707b3          	add	a5,a4,a5
     b7c:	00878793          	addi	a5,a5,8
     b80:	0ff7f793          	andi	a5,a5,255
     b84:	fef42423          	sw	a5,-24(s0)
     b88:	fe842703          	lw	a4,-24(s0)
     b8c:	00f00793          	addi	a5,zero,15
     b90:	00e7f663          	bgeu	a5,a4,b9c <luma_chunk+0x94>
     b94:	00000793          	addi	a5,zero,0
     b98:	0d40006f          	jal	zero,c6c <luma_chunk+0x164>
     b9c:	000047b7          	lui	a5,0x4
     ba0:	9587a783          	lw	a5,-1704(a5) # 3958 <previous_pixel_b>
     ba4:	fd442703          	lw	a4,-44(s0)
     ba8:	40f70733          	sub	a4,a4,a5
     bac:	000047b7          	lui	a5,0x4
     bb0:	9547a683          	lw	a3,-1708(a5) # 3954 <previous_pixel_g>
     bb4:	fd842783          	lw	a5,-40(s0)
     bb8:	40f687b3          	sub	a5,a3,a5
     bbc:	00f707b3          	add	a5,a4,a5
     bc0:	00878793          	addi	a5,a5,8
     bc4:	0ff7f793          	andi	a5,a5,255
     bc8:	fef42223          	sw	a5,-28(s0)
     bcc:	fe442703          	lw	a4,-28(s0)
     bd0:	00f00793          	addi	a5,zero,15
     bd4:	00e7f663          	bgeu	a5,a4,be0 <luma_chunk+0xd8>
     bd8:	00000793          	addi	a5,zero,0
     bdc:	0900006f          	jal	zero,c6c <luma_chunk+0x164>
     be0:	08000793          	addi	a5,zero,128
     be4:	fef42023          	sw	a5,-32(s0)
     be8:	fec42783          	lw	a5,-20(s0)
     bec:	03f7f793          	andi	a5,a5,63
     bf0:	fe042703          	lw	a4,-32(s0)
     bf4:	00f707b3          	add	a5,a4,a5
     bf8:	fef42023          	sw	a5,-32(s0)
     bfc:	fe042783          	lw	a5,-32(s0)
     c00:	0ff7f793          	andi	a5,a5,255
     c04:	00078513          	addi	a0,a5,0
     c08:	259000ef          	jal	ra,1660 <print_chr>
     c0c:	fe842783          	lw	a5,-24(s0)
     c10:	00479793          	slli	a5,a5,0x4
     c14:	0ff7f713          	andi	a4,a5,255
     c18:	fe442783          	lw	a5,-28(s0)
     c1c:	00f7f793          	andi	a5,a5,15
     c20:	00f707b3          	add	a5,a4,a5
     c24:	fef42023          	sw	a5,-32(s0)
     c28:	fe042783          	lw	a5,-32(s0)
     c2c:	0ff7f793          	andi	a5,a5,255
     c30:	00078513          	addi	a0,a5,0
     c34:	22d000ef          	jal	ra,1660 <print_chr>
     c38:	000047b7          	lui	a5,0x4
     c3c:	fdc42703          	lw	a4,-36(s0)
     c40:	94e7a823          	sw	a4,-1712(a5) # 3950 <previous_pixel_r>
     c44:	000047b7          	lui	a5,0x4
     c48:	fd842703          	lw	a4,-40(s0)
     c4c:	94e7aa23          	sw	a4,-1708(a5) # 3954 <previous_pixel_g>
     c50:	000047b7          	lui	a5,0x4
     c54:	fd442703          	lw	a4,-44(s0)
     c58:	94e7ac23          	sw	a4,-1704(a5) # 3958 <previous_pixel_b>
     c5c:	000047b7          	lui	a5,0x4
     c60:	fd042703          	lw	a4,-48(s0)
     c64:	94e7ae23          	sw	a4,-1700(a5) # 395c <previous_pixel_a>
     c68:	00100793          	addi	a5,zero,1
     c6c:	00078513          	addi	a0,a5,0
     c70:	02c12083          	lw	ra,44(sp)
     c74:	02812403          	lw	s0,40(sp)
     c78:	03010113          	addi	sp,sp,48
     c7c:	00008067          	jalr	zero,0(ra)

00000c80 <rgb_chunk>:
     c80:	fe010113          	addi	sp,sp,-32
     c84:	00112e23          	sw	ra,28(sp)
     c88:	00812c23          	sw	s0,24(sp)
     c8c:	02010413          	addi	s0,sp,32
     c90:	fea42623          	sw	a0,-20(s0)
     c94:	feb42423          	sw	a1,-24(s0)
     c98:	fec42223          	sw	a2,-28(s0)
     c9c:	fed42023          	sw	a3,-32(s0)
     ca0:	000047b7          	lui	a5,0x4
     ca4:	95c7a783          	lw	a5,-1700(a5) # 395c <previous_pixel_a>
     ca8:	fe042703          	lw	a4,-32(s0)
     cac:	06f71a63          	bne	a4,a5,d20 <rgb_chunk+0xa0>
     cb0:	0fe00513          	addi	a0,zero,254
     cb4:	1ad000ef          	jal	ra,1660 <print_chr>
     cb8:	fec42783          	lw	a5,-20(s0)
     cbc:	0ff7f793          	andi	a5,a5,255
     cc0:	00078513          	addi	a0,a5,0
     cc4:	19d000ef          	jal	ra,1660 <print_chr>
     cc8:	fe842783          	lw	a5,-24(s0)
     ccc:	0ff7f793          	andi	a5,a5,255
     cd0:	00078513          	addi	a0,a5,0
     cd4:	18d000ef          	jal	ra,1660 <print_chr>
     cd8:	fe442783          	lw	a5,-28(s0)
     cdc:	0ff7f793          	andi	a5,a5,255
     ce0:	00078513          	addi	a0,a5,0
     ce4:	17d000ef          	jal	ra,1660 <print_chr>
     ce8:	000047b7          	lui	a5,0x4
     cec:	fec42703          	lw	a4,-20(s0)
     cf0:	94e7a823          	sw	a4,-1712(a5) # 3950 <previous_pixel_r>
     cf4:	000047b7          	lui	a5,0x4
     cf8:	fe842703          	lw	a4,-24(s0)
     cfc:	94e7aa23          	sw	a4,-1708(a5) # 3954 <previous_pixel_g>
     d00:	000047b7          	lui	a5,0x4
     d04:	fe442703          	lw	a4,-28(s0)
     d08:	94e7ac23          	sw	a4,-1704(a5) # 3958 <previous_pixel_b>
     d0c:	000047b7          	lui	a5,0x4
     d10:	fe042703          	lw	a4,-32(s0)
     d14:	94e7ae23          	sw	a4,-1700(a5) # 395c <previous_pixel_a>
     d18:	00100793          	addi	a5,zero,1
     d1c:	0080006f          	jal	zero,d24 <rgb_chunk+0xa4>
     d20:	00000793          	addi	a5,zero,0
     d24:	00078513          	addi	a0,a5,0
     d28:	01c12083          	lw	ra,28(sp)
     d2c:	01812403          	lw	s0,24(sp)
     d30:	02010113          	addi	sp,sp,32
     d34:	00008067          	jalr	zero,0(ra)

00000d38 <rgba_chunk>:
     d38:	fe010113          	addi	sp,sp,-32
     d3c:	00112e23          	sw	ra,28(sp)
     d40:	00812c23          	sw	s0,24(sp)
     d44:	02010413          	addi	s0,sp,32
     d48:	fea42623          	sw	a0,-20(s0)
     d4c:	feb42423          	sw	a1,-24(s0)
     d50:	fec42223          	sw	a2,-28(s0)
     d54:	fed42023          	sw	a3,-32(s0)
     d58:	0ff00513          	addi	a0,zero,255
     d5c:	105000ef          	jal	ra,1660 <print_chr>
     d60:	fec42783          	lw	a5,-20(s0)
     d64:	0ff7f793          	andi	a5,a5,255
     d68:	00078513          	addi	a0,a5,0
     d6c:	0f5000ef          	jal	ra,1660 <print_chr>
     d70:	fe842783          	lw	a5,-24(s0)
     d74:	0ff7f793          	andi	a5,a5,255
     d78:	00078513          	addi	a0,a5,0
     d7c:	0e5000ef          	jal	ra,1660 <print_chr>
     d80:	fe442783          	lw	a5,-28(s0)
     d84:	0ff7f793          	andi	a5,a5,255
     d88:	00078513          	addi	a0,a5,0
     d8c:	0d5000ef          	jal	ra,1660 <print_chr>
     d90:	fe042783          	lw	a5,-32(s0)
     d94:	0ff7f793          	andi	a5,a5,255
     d98:	00078513          	addi	a0,a5,0
     d9c:	0c5000ef          	jal	ra,1660 <print_chr>
     da0:	00000013          	addi	zero,zero,0
     da4:	01c12083          	lw	ra,28(sp)
     da8:	01812403          	lw	s0,24(sp)
     dac:	02010113          	addi	sp,sp,32
     db0:	00008067          	jalr	zero,0(ra)

00000db4 <end_marker>:
     db4:	fe010113          	addi	sp,sp,-32
     db8:	00112e23          	sw	ra,28(sp)
     dbc:	00812c23          	sw	s0,24(sp)
     dc0:	02010413          	addi	s0,sp,32
     dc4:	0c000793          	addi	a5,zero,192
     dc8:	fef42623          	sw	a5,-20(s0)
     dcc:	000047b7          	lui	a5,0x4
     dd0:	9687a703          	lw	a4,-1688(a5) # 3968 <RLE>
     dd4:	fec42783          	lw	a5,-20(s0)
     dd8:	00f707b3          	add	a5,a4,a5
     ddc:	fff78793          	addi	a5,a5,-1
     de0:	fef42423          	sw	a5,-24(s0)
     de4:	fe842783          	lw	a5,-24(s0)
     de8:	0ff7f793          	andi	a5,a5,255
     dec:	00078513          	addi	a0,a5,0
     df0:	071000ef          	jal	ra,1660 <print_chr>
     df4:	000047b7          	lui	a5,0x4
     df8:	9607a423          	sw	zero,-1688(a5) # 3968 <RLE>
     dfc:	00000513          	addi	a0,zero,0
     e00:	061000ef          	jal	ra,1660 <print_chr>
     e04:	00000513          	addi	a0,zero,0
     e08:	059000ef          	jal	ra,1660 <print_chr>
     e0c:	00000513          	addi	a0,zero,0
     e10:	051000ef          	jal	ra,1660 <print_chr>
     e14:	00000513          	addi	a0,zero,0
     e18:	049000ef          	jal	ra,1660 <print_chr>
     e1c:	00000513          	addi	a0,zero,0
     e20:	041000ef          	jal	ra,1660 <print_chr>
     e24:	00000513          	addi	a0,zero,0
     e28:	039000ef          	jal	ra,1660 <print_chr>
     e2c:	00000513          	addi	a0,zero,0
     e30:	031000ef          	jal	ra,1660 <print_chr>
     e34:	00100513          	addi	a0,zero,1
     e38:	029000ef          	jal	ra,1660 <print_chr>
     e3c:	00000013          	addi	zero,zero,0
     e40:	01c12083          	lw	ra,28(sp)
     e44:	01812403          	lw	s0,24(sp)
     e48:	02010113          	addi	sp,sp,32
     e4c:	00008067          	jalr	zero,0(ra)

00000e50 <output_chunk>:
     e50:	fe010113          	addi	sp,sp,-32
     e54:	00112e23          	sw	ra,28(sp)
     e58:	00812c23          	sw	s0,24(sp)
     e5c:	02010413          	addi	s0,sp,32
     e60:	fea42623          	sw	a0,-20(s0)
     e64:	feb42423          	sw	a1,-24(s0)
     e68:	fec42223          	sw	a2,-28(s0)
     e6c:	fed42023          	sw	a3,-32(s0)
     e70:	fec42783          	lw	a5,-20(s0)
     e74:	0ff7f713          	andi	a4,a5,255
     e78:	fe842783          	lw	a5,-24(s0)
     e7c:	0ff7f593          	andi	a1,a5,255
     e80:	fe442783          	lw	a5,-28(s0)
     e84:	0ff7f613          	andi	a2,a5,255
     e88:	fe042783          	lw	a5,-32(s0)
     e8c:	0ff7f793          	andi	a5,a5,255
     e90:	00078693          	addi	a3,a5,0
     e94:	00070513          	addi	a0,a4,0
     e98:	fe8ff0ef          	jal	ra,680 <run_chunk>
     e9c:	00050713          	addi	a4,a0,0
     ea0:	00100793          	addi	a5,zero,1
     ea4:	0cf70e63          	beq	a4,a5,f80 <output_chunk+0x130>
     ea8:	fec42783          	lw	a5,-20(s0)
     eac:	0ff7f713          	andi	a4,a5,255
     eb0:	fe842783          	lw	a5,-24(s0)
     eb4:	0ff7f593          	andi	a1,a5,255
     eb8:	fe442783          	lw	a5,-28(s0)
     ebc:	0ff7f613          	andi	a2,a5,255
     ec0:	fe042783          	lw	a5,-32(s0)
     ec4:	0ff7f793          	andi	a5,a5,255
     ec8:	00078693          	addi	a3,a5,0
     ecc:	00070513          	addi	a0,a4,0
     ed0:	94dff0ef          	jal	ra,81c <index_chunk>
     ed4:	00050713          	addi	a4,a0,0
     ed8:	00100793          	addi	a5,zero,1
     edc:	0af70663          	beq	a4,a5,f88 <output_chunk+0x138>
     ee0:	fec42783          	lw	a5,-20(s0)
     ee4:	0ff7f713          	andi	a4,a5,255
     ee8:	fe842783          	lw	a5,-24(s0)
     eec:	0ff7f593          	andi	a1,a5,255
     ef0:	fe442783          	lw	a5,-28(s0)
     ef4:	0ff7f613          	andi	a2,a5,255
     ef8:	fe042783          	lw	a5,-32(s0)
     efc:	0ff7f793          	andi	a5,a5,255
     f00:	00078693          	addi	a3,a5,0
     f04:	00070513          	addi	a0,a4,0
     f08:	aa5ff0ef          	jal	ra,9ac <diff_chunk>
     f0c:	00050713          	addi	a4,a0,0
     f10:	00100793          	addi	a5,zero,1
     f14:	06f70e63          	beq	a4,a5,f90 <output_chunk+0x140>
     f18:	fec42783          	lw	a5,-20(s0)
     f1c:	0ff7f713          	andi	a4,a5,255
     f20:	fe842783          	lw	a5,-24(s0)
     f24:	0ff7f593          	andi	a1,a5,255
     f28:	fe442783          	lw	a5,-28(s0)
     f2c:	0ff7f613          	andi	a2,a5,255
     f30:	fe042783          	lw	a5,-32(s0)
     f34:	0ff7f793          	andi	a5,a5,255
     f38:	00078693          	addi	a3,a5,0
     f3c:	00070513          	addi	a0,a4,0
     f40:	bc9ff0ef          	jal	ra,b08 <luma_chunk>
     f44:	00050713          	addi	a4,a0,0
     f48:	00100793          	addi	a5,zero,1
     f4c:	04f70663          	beq	a4,a5,f98 <output_chunk+0x148>
     f50:	fec42783          	lw	a5,-20(s0)
     f54:	0ff7f713          	andi	a4,a5,255
     f58:	fe842783          	lw	a5,-24(s0)
     f5c:	0ff7f593          	andi	a1,a5,255
     f60:	fe442783          	lw	a5,-28(s0)
     f64:	0ff7f613          	andi	a2,a5,255
     f68:	fe042783          	lw	a5,-32(s0)
     f6c:	0ff7f793          	andi	a5,a5,255
     f70:	00078693          	addi	a3,a5,0
     f74:	00070513          	addi	a0,a4,0
     f78:	d09ff0ef          	jal	ra,c80 <rgb_chunk>
     f7c:	0200006f          	jal	zero,f9c <output_chunk+0x14c>
     f80:	00000013          	addi	zero,zero,0
     f84:	0180006f          	jal	zero,f9c <output_chunk+0x14c>
     f88:	00000013          	addi	zero,zero,0
     f8c:	0100006f          	jal	zero,f9c <output_chunk+0x14c>
     f90:	00000013          	addi	zero,zero,0
     f94:	0080006f          	jal	zero,f9c <output_chunk+0x14c>
     f98:	00000013          	addi	zero,zero,0
     f9c:	01c12083          	lw	ra,28(sp)
     fa0:	01812403          	lw	s0,24(sp)
     fa4:	02010113          	addi	sp,sp,32
     fa8:	00008067          	jalr	zero,0(ra)

00000fac <irq_handler>:
     fac:	fe010113          	addi	sp,sp,-32
     fb0:	00112e23          	sw	ra,28(sp)
     fb4:	00812c23          	sw	s0,24(sp)
     fb8:	02010413          	addi	s0,sp,32
     fbc:	fea42623          	sw	a0,-20(s0)
     fc0:	00000013          	addi	zero,zero,0
     fc4:	01c12083          	lw	ra,28(sp)
     fc8:	01812403          	lw	s0,24(sp)
     fcc:	02010113          	addi	sp,sp,32
     fd0:	00008067          	jalr	zero,0(ra)

00000fd4 <main>:
     fd4:	fe010113          	addi	sp,sp,-32
     fd8:	00112e23          	sw	ra,28(sp)
     fdc:	00812c23          	sw	s0,24(sp)
     fe0:	02010413          	addi	s0,sp,32
     fe4:	820007b7          	lui	a5,0x82000
     fe8:	00878793          	addi	a5,a5,8 # 82000008 <a+0x81ffc68c>
     fec:	0007a783          	lw	a5,0(a5)
     ff0:	0107d793          	srli	a5,a5,0x10
     ff4:	0ff7f793          	andi	a5,a5,255
     ff8:	fef42423          	sw	a5,-24(s0)
     ffc:	820007b7          	lui	a5,0x82000
    1000:	00878793          	addi	a5,a5,8 # 82000008 <a+0x81ffc68c>
    1004:	0007a783          	lw	a5,0(a5)
    1008:	0087d793          	srli	a5,a5,0x8
    100c:	0ff7f793          	andi	a5,a5,255
    1010:	fef42223          	sw	a5,-28(s0)
    1014:	00000693          	addi	a3,zero,0
    1018:	00300613          	addi	a2,zero,3
    101c:	fe442583          	lw	a1,-28(s0)
    1020:	fe842503          	lw	a0,-24(s0)
    1024:	ca4ff0ef          	jal	ra,4c8 <output_header>
    1028:	fe042623          	sw	zero,-20(s0)
    102c:	08c0006f          	jal	zero,10b8 <main+0xe4>
    1030:	0c9000ef          	jal	ra,18f8 <SENSOR_fetch>
    1034:	fea42023          	sw	a0,-32(s0)
    1038:	fe042783          	lw	a5,-32(s0)
    103c:	0187d713          	srli	a4,a5,0x18
    1040:	000047b7          	lui	a5,0x4
    1044:	96e7a823          	sw	a4,-1680(a5) # 3970 <r>
    1048:	fe042783          	lw	a5,-32(s0)
    104c:	0107d793          	srli	a5,a5,0x10
    1050:	0ff7f713          	andi	a4,a5,255
    1054:	000047b7          	lui	a5,0x4
    1058:	96e7aa23          	sw	a4,-1676(a5) # 3974 <g>
    105c:	fe042783          	lw	a5,-32(s0)
    1060:	0087d793          	srli	a5,a5,0x8
    1064:	0ff7f713          	andi	a4,a5,255
    1068:	000047b7          	lui	a5,0x4
    106c:	96e7ac23          	sw	a4,-1672(a5) # 3978 <b>
    1070:	fe042783          	lw	a5,-32(s0)
    1074:	0ff7f713          	andi	a4,a5,255
    1078:	000047b7          	lui	a5,0x4
    107c:	96e7ae23          	sw	a4,-1668(a5) # 397c <a>
    1080:	000047b7          	lui	a5,0x4
    1084:	9707a703          	lw	a4,-1680(a5) # 3970 <r>
    1088:	000047b7          	lui	a5,0x4
    108c:	9747a583          	lw	a1,-1676(a5) # 3974 <g>
    1090:	000047b7          	lui	a5,0x4
    1094:	9787a603          	lw	a2,-1672(a5) # 3978 <b>
    1098:	000047b7          	lui	a5,0x4
    109c:	97c7a783          	lw	a5,-1668(a5) # 397c <a>
    10a0:	00078693          	addi	a3,a5,0
    10a4:	00070513          	addi	a0,a4,0
    10a8:	da9ff0ef          	jal	ra,e50 <output_chunk>
    10ac:	fec42783          	lw	a5,-20(s0)
    10b0:	00178793          	addi	a5,a5,1
    10b4:	fef42623          	sw	a5,-20(s0)
    10b8:	fec42703          	lw	a4,-20(s0)
    10bc:	000017b7          	lui	a5,0x1
    10c0:	ea578793          	addi	a5,a5,-347 # ea5 <output_chunk+0x55>
    10c4:	f6e7f6e3          	bgeu	a5,a4,1030 <main+0x5c>
    10c8:	cedff0ef          	jal	ra,db4 <end_marker>
    10cc:	0000006f          	jal	zero,10cc <main+0xf8>

000010d0 <umult>:
    10d0:	fd010113          	addi	sp,sp,-48
    10d4:	02112623          	sw	ra,44(sp)
    10d8:	02812423          	sw	s0,40(sp)
    10dc:	03010413          	addi	s0,sp,48
    10e0:	fca42e23          	sw	a0,-36(s0)
    10e4:	fcb42c23          	sw	a1,-40(s0)
    10e8:	fe042623          	sw	zero,-20(s0)
    10ec:	0380006f          	jal	zero,1124 <umult+0x54>
    10f0:	fd842783          	lw	a5,-40(s0)
    10f4:	0017f793          	andi	a5,a5,1
    10f8:	00078a63          	beq	a5,zero,110c <umult+0x3c>
    10fc:	fec42703          	lw	a4,-20(s0)
    1100:	fdc42783          	lw	a5,-36(s0)
    1104:	00f707b3          	add	a5,a4,a5
    1108:	fef42623          	sw	a5,-20(s0)
    110c:	fdc42783          	lw	a5,-36(s0)
    1110:	00179793          	slli	a5,a5,0x1
    1114:	fcf42e23          	sw	a5,-36(s0)
    1118:	fd842783          	lw	a5,-40(s0)
    111c:	0017d793          	srli	a5,a5,0x1
    1120:	fcf42c23          	sw	a5,-40(s0)
    1124:	fd842783          	lw	a5,-40(s0)
    1128:	fc0794e3          	bne	a5,zero,10f0 <umult+0x20>
    112c:	fec42783          	lw	a5,-20(s0)
    1130:	00078513          	addi	a0,a5,0
    1134:	02c12083          	lw	ra,44(sp)
    1138:	02812403          	lw	s0,40(sp)
    113c:	03010113          	addi	sp,sp,48
    1140:	00008067          	jalr	zero,0(ra)

00001144 <udiv>:
    1144:	fd010113          	addi	sp,sp,-48
    1148:	02112623          	sw	ra,44(sp)
    114c:	02812423          	sw	s0,40(sp)
    1150:	03010413          	addi	s0,sp,48
    1154:	fca42e23          	sw	a0,-36(s0)
    1158:	fcb42c23          	sw	a1,-40(s0)
    115c:	fe042623          	sw	zero,-20(s0)
    1160:	01000793          	addi	a5,zero,16
    1164:	fef42423          	sw	a5,-24(s0)
    1168:	fe842783          	lw	a5,-24(s0)
    116c:	fff78793          	addi	a5,a5,-1
    1170:	fef42423          	sw	a5,-24(s0)
    1174:	fe842783          	lw	a5,-24(s0)
    1178:	fd842703          	lw	a4,-40(s0)
    117c:	00f717b3          	sll	a5,a4,a5
    1180:	fdc42703          	lw	a4,-36(s0)
    1184:	02f76c63          	bltu	a4,a5,11bc <udiv+0x78>
    1188:	fe842783          	lw	a5,-24(s0)
    118c:	fd842703          	lw	a4,-40(s0)
    1190:	00f717b3          	sll	a5,a4,a5
    1194:	fdc42703          	lw	a4,-36(s0)
    1198:	40f707b3          	sub	a5,a4,a5
    119c:	fcf42e23          	sw	a5,-36(s0)
    11a0:	fe842783          	lw	a5,-24(s0)
    11a4:	00100713          	addi	a4,zero,1
    11a8:	00f717b3          	sll	a5,a4,a5
    11ac:	00078713          	addi	a4,a5,0
    11b0:	fec42783          	lw	a5,-20(s0)
    11b4:	00e787b3          	add	a5,a5,a4
    11b8:	fef42623          	sw	a5,-20(s0)
    11bc:	fe842783          	lw	a5,-24(s0)
    11c0:	fa0794e3          	bne	a5,zero,1168 <udiv+0x24>
    11c4:	fec42783          	lw	a5,-20(s0)
    11c8:	00078513          	addi	a0,a5,0
    11cc:	02c12083          	lw	ra,44(sp)
    11d0:	02812403          	lw	s0,40(sp)
    11d4:	03010113          	addi	sp,sp,48
    11d8:	00008067          	jalr	zero,0(ra)

000011dc <umod>:
    11dc:	fe010113          	addi	sp,sp,-32
    11e0:	00112e23          	sw	ra,28(sp)
    11e4:	00812c23          	sw	s0,24(sp)
    11e8:	02010413          	addi	s0,sp,32
    11ec:	fea42623          	sw	a0,-20(s0)
    11f0:	feb42423          	sw	a1,-24(s0)
    11f4:	fe842583          	lw	a1,-24(s0)
    11f8:	fec42503          	lw	a0,-20(s0)
    11fc:	f49ff0ef          	jal	ra,1144 <udiv>
    1200:	00050793          	addi	a5,a0,0
    1204:	fe842583          	lw	a1,-24(s0)
    1208:	00078513          	addi	a0,a5,0
    120c:	ec5ff0ef          	jal	ra,10d0 <umult>
    1210:	00050713          	addi	a4,a0,0
    1214:	fec42783          	lw	a5,-20(s0)
    1218:	40e787b3          	sub	a5,a5,a4
    121c:	fef42623          	sw	a5,-20(s0)
    1220:	fec42783          	lw	a5,-20(s0)
    1224:	00078513          	addi	a0,a5,0
    1228:	01c12083          	lw	ra,28(sp)
    122c:	01812403          	lw	s0,24(sp)
    1230:	02010113          	addi	sp,sp,32
    1234:	00008067          	jalr	zero,0(ra)

00001238 <matrix_mult>:
    1238:	fe010113          	addi	sp,sp,-32
    123c:	00112e23          	sw	ra,28(sp)
    1240:	00812c23          	sw	s0,24(sp)
    1244:	00912a23          	sw	s1,20(sp)
    1248:	02010413          	addi	s0,sp,32
    124c:	fea42623          	sw	a0,-20(s0)
    1250:	feb42423          	sw	a1,-24(s0)
    1254:	fec42223          	sw	a2,-28(s0)
    1258:	fe842783          	lw	a5,-24(s0)
    125c:	0007a703          	lw	a4,0(a5)
    1260:	fe442783          	lw	a5,-28(s0)
    1264:	0007a783          	lw	a5,0(a5)
    1268:	00078593          	addi	a1,a5,0
    126c:	00070513          	addi	a0,a4,0
    1270:	f69fe0ef          	jal	ra,1d8 <sw_mult>
    1274:	00050493          	addi	s1,a0,0
    1278:	fe842783          	lw	a5,-24(s0)
    127c:	00c7a703          	lw	a4,12(a5)
    1280:	fe442783          	lw	a5,-28(s0)
    1284:	0047a783          	lw	a5,4(a5)
    1288:	00078593          	addi	a1,a5,0
    128c:	00070513          	addi	a0,a4,0
    1290:	f49fe0ef          	jal	ra,1d8 <sw_mult>
    1294:	00050793          	addi	a5,a0,0
    1298:	00f484b3          	add	s1,s1,a5
    129c:	fe842783          	lw	a5,-24(s0)
    12a0:	0187a703          	lw	a4,24(a5)
    12a4:	fe442783          	lw	a5,-28(s0)
    12a8:	0087a783          	lw	a5,8(a5)
    12ac:	00078593          	addi	a1,a5,0
    12b0:	00070513          	addi	a0,a4,0
    12b4:	f25fe0ef          	jal	ra,1d8 <sw_mult>
    12b8:	00050793          	addi	a5,a0,0
    12bc:	00f48733          	add	a4,s1,a5
    12c0:	fec42783          	lw	a5,-20(s0)
    12c4:	00e7a023          	sw	a4,0(a5)
    12c8:	fe842783          	lw	a5,-24(s0)
    12cc:	0007a703          	lw	a4,0(a5)
    12d0:	fe442783          	lw	a5,-28(s0)
    12d4:	00c7a783          	lw	a5,12(a5)
    12d8:	00078593          	addi	a1,a5,0
    12dc:	00070513          	addi	a0,a4,0
    12e0:	ef9fe0ef          	jal	ra,1d8 <sw_mult>
    12e4:	00050493          	addi	s1,a0,0
    12e8:	fe842783          	lw	a5,-24(s0)
    12ec:	00c7a703          	lw	a4,12(a5)
    12f0:	fe442783          	lw	a5,-28(s0)
    12f4:	0107a783          	lw	a5,16(a5)
    12f8:	00078593          	addi	a1,a5,0
    12fc:	00070513          	addi	a0,a4,0
    1300:	ed9fe0ef          	jal	ra,1d8 <sw_mult>
    1304:	00050793          	addi	a5,a0,0
    1308:	00f484b3          	add	s1,s1,a5
    130c:	fe842783          	lw	a5,-24(s0)
    1310:	0187a703          	lw	a4,24(a5)
    1314:	fe442783          	lw	a5,-28(s0)
    1318:	0147a783          	lw	a5,20(a5)
    131c:	00078593          	addi	a1,a5,0
    1320:	00070513          	addi	a0,a4,0
    1324:	eb5fe0ef          	jal	ra,1d8 <sw_mult>
    1328:	00050793          	addi	a5,a0,0
    132c:	00f48733          	add	a4,s1,a5
    1330:	fec42783          	lw	a5,-20(s0)
    1334:	00e7a623          	sw	a4,12(a5)
    1338:	fe842783          	lw	a5,-24(s0)
    133c:	0007a703          	lw	a4,0(a5)
    1340:	fe442783          	lw	a5,-28(s0)
    1344:	0187a783          	lw	a5,24(a5)
    1348:	00078593          	addi	a1,a5,0
    134c:	00070513          	addi	a0,a4,0
    1350:	e89fe0ef          	jal	ra,1d8 <sw_mult>
    1354:	00050493          	addi	s1,a0,0
    1358:	fe842783          	lw	a5,-24(s0)
    135c:	00c7a703          	lw	a4,12(a5)
    1360:	fe442783          	lw	a5,-28(s0)
    1364:	01c7a783          	lw	a5,28(a5)
    1368:	00078593          	addi	a1,a5,0
    136c:	00070513          	addi	a0,a4,0
    1370:	e69fe0ef          	jal	ra,1d8 <sw_mult>
    1374:	00050793          	addi	a5,a0,0
    1378:	00f484b3          	add	s1,s1,a5
    137c:	fe842783          	lw	a5,-24(s0)
    1380:	0187a703          	lw	a4,24(a5)
    1384:	fe442783          	lw	a5,-28(s0)
    1388:	0207a783          	lw	a5,32(a5)
    138c:	00078593          	addi	a1,a5,0
    1390:	00070513          	addi	a0,a4,0
    1394:	e45fe0ef          	jal	ra,1d8 <sw_mult>
    1398:	00050793          	addi	a5,a0,0
    139c:	00f48733          	add	a4,s1,a5
    13a0:	fec42783          	lw	a5,-20(s0)
    13a4:	00e7ac23          	sw	a4,24(a5)
    13a8:	fe842783          	lw	a5,-24(s0)
    13ac:	0047a703          	lw	a4,4(a5)
    13b0:	fe442783          	lw	a5,-28(s0)
    13b4:	0007a783          	lw	a5,0(a5)
    13b8:	00078593          	addi	a1,a5,0
    13bc:	00070513          	addi	a0,a4,0
    13c0:	e19fe0ef          	jal	ra,1d8 <sw_mult>
    13c4:	00050493          	addi	s1,a0,0
    13c8:	fe842783          	lw	a5,-24(s0)
    13cc:	0107a703          	lw	a4,16(a5)
    13d0:	fe442783          	lw	a5,-28(s0)
    13d4:	0047a783          	lw	a5,4(a5)
    13d8:	00078593          	addi	a1,a5,0
    13dc:	00070513          	addi	a0,a4,0
    13e0:	df9fe0ef          	jal	ra,1d8 <sw_mult>
    13e4:	00050793          	addi	a5,a0,0
    13e8:	00f484b3          	add	s1,s1,a5
    13ec:	fe842783          	lw	a5,-24(s0)
    13f0:	01c7a703          	lw	a4,28(a5)
    13f4:	fe442783          	lw	a5,-28(s0)
    13f8:	0087a783          	lw	a5,8(a5)
    13fc:	00078593          	addi	a1,a5,0
    1400:	00070513          	addi	a0,a4,0
    1404:	dd5fe0ef          	jal	ra,1d8 <sw_mult>
    1408:	00050793          	addi	a5,a0,0
    140c:	00f48733          	add	a4,s1,a5
    1410:	fec42783          	lw	a5,-20(s0)
    1414:	00e7a223          	sw	a4,4(a5)
    1418:	fe842783          	lw	a5,-24(s0)
    141c:	0047a703          	lw	a4,4(a5)
    1420:	fe442783          	lw	a5,-28(s0)
    1424:	00c7a783          	lw	a5,12(a5)
    1428:	00078593          	addi	a1,a5,0
    142c:	00070513          	addi	a0,a4,0
    1430:	da9fe0ef          	jal	ra,1d8 <sw_mult>
    1434:	00050493          	addi	s1,a0,0
    1438:	fe842783          	lw	a5,-24(s0)
    143c:	0107a703          	lw	a4,16(a5)
    1440:	fe442783          	lw	a5,-28(s0)
    1444:	0107a783          	lw	a5,16(a5)
    1448:	00078593          	addi	a1,a5,0
    144c:	00070513          	addi	a0,a4,0
    1450:	d89fe0ef          	jal	ra,1d8 <sw_mult>
    1454:	00050793          	addi	a5,a0,0
    1458:	00f484b3          	add	s1,s1,a5
    145c:	fe842783          	lw	a5,-24(s0)
    1460:	01c7a703          	lw	a4,28(a5)
    1464:	fe442783          	lw	a5,-28(s0)
    1468:	0147a783          	lw	a5,20(a5)
    146c:	00078593          	addi	a1,a5,0
    1470:	00070513          	addi	a0,a4,0
    1474:	d65fe0ef          	jal	ra,1d8 <sw_mult>
    1478:	00050793          	addi	a5,a0,0
    147c:	00f48733          	add	a4,s1,a5
    1480:	fec42783          	lw	a5,-20(s0)
    1484:	00e7a823          	sw	a4,16(a5)
    1488:	fe842783          	lw	a5,-24(s0)
    148c:	0047a703          	lw	a4,4(a5)
    1490:	fe442783          	lw	a5,-28(s0)
    1494:	0187a783          	lw	a5,24(a5)
    1498:	00078593          	addi	a1,a5,0
    149c:	00070513          	addi	a0,a4,0
    14a0:	d39fe0ef          	jal	ra,1d8 <sw_mult>
    14a4:	00050493          	addi	s1,a0,0
    14a8:	fe842783          	lw	a5,-24(s0)
    14ac:	0107a703          	lw	a4,16(a5)
    14b0:	fe442783          	lw	a5,-28(s0)
    14b4:	01c7a783          	lw	a5,28(a5)
    14b8:	00078593          	addi	a1,a5,0
    14bc:	00070513          	addi	a0,a4,0
    14c0:	d19fe0ef          	jal	ra,1d8 <sw_mult>
    14c4:	00050793          	addi	a5,a0,0
    14c8:	00f484b3          	add	s1,s1,a5
    14cc:	fe842783          	lw	a5,-24(s0)
    14d0:	01c7a703          	lw	a4,28(a5)
    14d4:	fe442783          	lw	a5,-28(s0)
    14d8:	0207a783          	lw	a5,32(a5)
    14dc:	00078593          	addi	a1,a5,0
    14e0:	00070513          	addi	a0,a4,0
    14e4:	cf5fe0ef          	jal	ra,1d8 <sw_mult>
    14e8:	00050793          	addi	a5,a0,0
    14ec:	00f48733          	add	a4,s1,a5
    14f0:	fec42783          	lw	a5,-20(s0)
    14f4:	00e7ae23          	sw	a4,28(a5)
    14f8:	fe842783          	lw	a5,-24(s0)
    14fc:	0087a703          	lw	a4,8(a5)
    1500:	fe442783          	lw	a5,-28(s0)
    1504:	0007a783          	lw	a5,0(a5)
    1508:	00078593          	addi	a1,a5,0
    150c:	00070513          	addi	a0,a4,0
    1510:	cc9fe0ef          	jal	ra,1d8 <sw_mult>
    1514:	00050493          	addi	s1,a0,0
    1518:	fe842783          	lw	a5,-24(s0)
    151c:	0147a703          	lw	a4,20(a5)
    1520:	fe442783          	lw	a5,-28(s0)
    1524:	0047a783          	lw	a5,4(a5)
    1528:	00078593          	addi	a1,a5,0
    152c:	00070513          	addi	a0,a4,0
    1530:	ca9fe0ef          	jal	ra,1d8 <sw_mult>
    1534:	00050793          	addi	a5,a0,0
    1538:	00f484b3          	add	s1,s1,a5
    153c:	fe842783          	lw	a5,-24(s0)
    1540:	0207a703          	lw	a4,32(a5)
    1544:	fe442783          	lw	a5,-28(s0)
    1548:	0087a783          	lw	a5,8(a5)
    154c:	00078593          	addi	a1,a5,0
    1550:	00070513          	addi	a0,a4,0
    1554:	c85fe0ef          	jal	ra,1d8 <sw_mult>
    1558:	00050793          	addi	a5,a0,0
    155c:	00f48733          	add	a4,s1,a5
    1560:	fec42783          	lw	a5,-20(s0)
    1564:	00e7a423          	sw	a4,8(a5)
    1568:	fe842783          	lw	a5,-24(s0)
    156c:	0087a703          	lw	a4,8(a5)
    1570:	fe442783          	lw	a5,-28(s0)
    1574:	00c7a783          	lw	a5,12(a5)
    1578:	00078593          	addi	a1,a5,0
    157c:	00070513          	addi	a0,a4,0
    1580:	c59fe0ef          	jal	ra,1d8 <sw_mult>
    1584:	00050493          	addi	s1,a0,0
    1588:	fe842783          	lw	a5,-24(s0)
    158c:	0147a703          	lw	a4,20(a5)
    1590:	fe442783          	lw	a5,-28(s0)
    1594:	0107a783          	lw	a5,16(a5)
    1598:	00078593          	addi	a1,a5,0
    159c:	00070513          	addi	a0,a4,0
    15a0:	c39fe0ef          	jal	ra,1d8 <sw_mult>
    15a4:	00050793          	addi	a5,a0,0
    15a8:	00f484b3          	add	s1,s1,a5
    15ac:	fe842783          	lw	a5,-24(s0)
    15b0:	0207a703          	lw	a4,32(a5)
    15b4:	fe442783          	lw	a5,-28(s0)
    15b8:	0147a783          	lw	a5,20(a5)
    15bc:	00078593          	addi	a1,a5,0
    15c0:	00070513          	addi	a0,a4,0
    15c4:	c15fe0ef          	jal	ra,1d8 <sw_mult>
    15c8:	00050793          	addi	a5,a0,0
    15cc:	00f48733          	add	a4,s1,a5
    15d0:	fec42783          	lw	a5,-20(s0)
    15d4:	00e7aa23          	sw	a4,20(a5)
    15d8:	fe842783          	lw	a5,-24(s0)
    15dc:	0087a703          	lw	a4,8(a5)
    15e0:	fe442783          	lw	a5,-28(s0)
    15e4:	0187a783          	lw	a5,24(a5)
    15e8:	00078593          	addi	a1,a5,0
    15ec:	00070513          	addi	a0,a4,0
    15f0:	be9fe0ef          	jal	ra,1d8 <sw_mult>
    15f4:	00050493          	addi	s1,a0,0
    15f8:	fe842783          	lw	a5,-24(s0)
    15fc:	0147a703          	lw	a4,20(a5)
    1600:	fe442783          	lw	a5,-28(s0)
    1604:	01c7a783          	lw	a5,28(a5)
    1608:	00078593          	addi	a1,a5,0
    160c:	00070513          	addi	a0,a4,0
    1610:	bc9fe0ef          	jal	ra,1d8 <sw_mult>
    1614:	00050793          	addi	a5,a0,0
    1618:	00f484b3          	add	s1,s1,a5
    161c:	fe842783          	lw	a5,-24(s0)
    1620:	0207a703          	lw	a4,32(a5)
    1624:	fe442783          	lw	a5,-28(s0)
    1628:	0207a783          	lw	a5,32(a5)
    162c:	00078593          	addi	a1,a5,0
    1630:	00070513          	addi	a0,a4,0
    1634:	ba5fe0ef          	jal	ra,1d8 <sw_mult>
    1638:	00050793          	addi	a5,a0,0
    163c:	00f48733          	add	a4,s1,a5
    1640:	fec42783          	lw	a5,-20(s0)
    1644:	02e7a023          	sw	a4,32(a5)
    1648:	00000013          	addi	zero,zero,0
    164c:	01c12083          	lw	ra,28(sp)
    1650:	01812403          	lw	s0,24(sp)
    1654:	01412483          	lw	s1,20(sp)
    1658:	02010113          	addi	sp,sp,32
    165c:	00008067          	jalr	zero,0(ra)

00001660 <print_chr>:
    1660:	fe010113          	addi	sp,sp,-32
    1664:	00112e23          	sw	ra,28(sp)
    1668:	00812c23          	sw	s0,24(sp)
    166c:	02010413          	addi	s0,sp,32
    1670:	00050793          	addi	a5,a0,0
    1674:	fef407a3          	sb	a5,-17(s0)
    1678:	800007b7          	lui	a5,0x80000
    167c:	fef44703          	lbu	a4,-17(s0)
    1680:	00e7a023          	sw	a4,0(a5) # 80000000 <a+0x7fffc684>
    1684:	00000013          	addi	zero,zero,0
    1688:	01c12083          	lw	ra,28(sp)
    168c:	01812403          	lw	s0,24(sp)
    1690:	02010113          	addi	sp,sp,32
    1694:	00008067          	jalr	zero,0(ra)

00001698 <print_str>:
    1698:	fe010113          	addi	sp,sp,-32
    169c:	00112e23          	sw	ra,28(sp)
    16a0:	00812c23          	sw	s0,24(sp)
    16a4:	02010413          	addi	s0,sp,32
    16a8:	fea42623          	sw	a0,-20(s0)
    16ac:	01c0006f          	jal	zero,16c8 <print_str+0x30>
    16b0:	fec42783          	lw	a5,-20(s0)
    16b4:	00178713          	addi	a4,a5,1
    16b8:	fee42623          	sw	a4,-20(s0)
    16bc:	0007c703          	lbu	a4,0(a5)
    16c0:	800007b7          	lui	a5,0x80000
    16c4:	00e7a023          	sw	a4,0(a5) # 80000000 <a+0x7fffc684>
    16c8:	fec42783          	lw	a5,-20(s0)
    16cc:	0007c783          	lbu	a5,0(a5)
    16d0:	fe0790e3          	bne	a5,zero,16b0 <print_str+0x18>
    16d4:	00000013          	addi	zero,zero,0
    16d8:	00000013          	addi	zero,zero,0
    16dc:	01c12083          	lw	ra,28(sp)
    16e0:	01812403          	lw	s0,24(sp)
    16e4:	02010113          	addi	sp,sp,32
    16e8:	00008067          	jalr	zero,0(ra)

000016ec <print_hex>:
    16ec:	fd010113          	addi	sp,sp,-48
    16f0:	02112623          	sw	ra,44(sp)
    16f4:	02812423          	sw	s0,40(sp)
    16f8:	03010413          	addi	s0,sp,48
    16fc:	fca42e23          	sw	a0,-36(s0)
    1700:	fcb42c23          	sw	a1,-40(s0)
    1704:	fd842783          	lw	a5,-40(s0)
    1708:	08078263          	beq	a5,zero,178c <print_hex+0xa0>
    170c:	fd842783          	lw	a5,-40(s0)
    1710:	00279793          	slli	a5,a5,0x2
    1714:	fef42423          	sw	a5,-24(s0)
    1718:	fe842783          	lw	a5,-24(s0)
    171c:	ffc78793          	addi	a5,a5,-4
    1720:	fef42623          	sw	a5,-20(s0)
    1724:	0500006f          	jal	zero,1774 <print_hex+0x88>
    1728:	fec42783          	lw	a5,-20(s0)
    172c:	fdc42703          	lw	a4,-36(s0)
    1730:	00f757b3          	srl	a5,a4,a5
    1734:	fef42223          	sw	a5,-28(s0)
    1738:	fe442783          	lw	a5,-28(s0)
    173c:	00f7f793          	andi	a5,a5,15
    1740:	fef42223          	sw	a5,-28(s0)
    1744:	000037b7          	lui	a5,0x3
    1748:	00478713          	addi	a4,a5,4 # 3004 <TCNT_stop+0x15fc>
    174c:	fe442783          	lw	a5,-28(s0)
    1750:	00f707b3          	add	a5,a4,a5
    1754:	0007c783          	lbu	a5,0(a5)
    1758:	fef401a3          	sb	a5,-29(s0)
    175c:	800007b7          	lui	a5,0x80000
    1760:	fe344703          	lbu	a4,-29(s0)
    1764:	00e7a023          	sw	a4,0(a5) # 80000000 <a+0x7fffc684>
    1768:	fec42783          	lw	a5,-20(s0)
    176c:	ffc78793          	addi	a5,a5,-4
    1770:	fef42623          	sw	a5,-20(s0)
    1774:	fec42783          	lw	a5,-20(s0)
    1778:	fa07d8e3          	bge	a5,zero,1728 <print_hex+0x3c>
    177c:	000037b7          	lui	a5,0x3
    1780:	00078513          	addi	a0,a5,0 # 3000 <TCNT_stop+0x15f8>
    1784:	f15ff0ef          	jal	ra,1698 <print_str>
    1788:	0080006f          	jal	zero,1790 <print_hex+0xa4>
    178c:	00000013          	addi	zero,zero,0
    1790:	02c12083          	lw	ra,44(sp)
    1794:	02812403          	lw	s0,40(sp)
    1798:	03010113          	addi	sp,sp,48
    179c:	00008067          	jalr	zero,0(ra)

000017a0 <print_dec>:
    17a0:	f9010113          	addi	sp,sp,-112
    17a4:	06112623          	sw	ra,108(sp)
    17a8:	06812423          	sw	s0,104(sp)
    17ac:	07010413          	addi	s0,sp,112
    17b0:	f8a42e23          	sw	a0,-100(s0)
    17b4:	fe042623          	sw	zero,-20(s0)
    17b8:	f9c42783          	lw	a5,-100(s0)
    17bc:	06079863          	bne	a5,zero,182c <print_dec+0x8c>
    17c0:	800007b7          	lui	a5,0x80000
    17c4:	03000713          	addi	a4,zero,48
    17c8:	00e7a023          	sw	a4,0(a5) # 80000000 <a+0x7fffc684>
    17cc:	000037b7          	lui	a5,0x3
    17d0:	00078513          	addi	a0,a5,0 # 3000 <TCNT_stop+0x15f8>
    17d4:	ec5ff0ef          	jal	ra,1698 <print_str>
    17d8:	0b40006f          	jal	zero,188c <print_dec+0xec>
    17dc:	00a00593          	addi	a1,zero,10
    17e0:	f9c42503          	lw	a0,-100(s0)
    17e4:	9f9ff0ef          	jal	ra,11dc <umod>
    17e8:	fea42223          	sw	a0,-28(s0)
    17ec:	00a00593          	addi	a1,zero,10
    17f0:	f9c42503          	lw	a0,-100(s0)
    17f4:	951ff0ef          	jal	ra,1144 <udiv>
    17f8:	f8a42e23          	sw	a0,-100(s0)
    17fc:	fe442783          	lw	a5,-28(s0)
    1800:	00f7f793          	andi	a5,a5,15
    1804:	fef42223          	sw	a5,-28(s0)
    1808:	fec42703          	lw	a4,-20(s0)
    180c:	fa440793          	addi	a5,s0,-92
    1810:	00271713          	slli	a4,a4,0x2
    1814:	00f707b3          	add	a5,a4,a5
    1818:	fe442703          	lw	a4,-28(s0)
    181c:	00e7a023          	sw	a4,0(a5)
    1820:	fec42783          	lw	a5,-20(s0)
    1824:	00178793          	addi	a5,a5,1
    1828:	fef42623          	sw	a5,-20(s0)
    182c:	f9c42783          	lw	a5,-100(s0)
    1830:	fa0796e3          	bne	a5,zero,17dc <print_dec+0x3c>
    1834:	0440006f          	jal	zero,1878 <print_dec+0xd8>
    1838:	fec42783          	lw	a5,-20(s0)
    183c:	fff78793          	addi	a5,a5,-1
    1840:	fef42623          	sw	a5,-20(s0)
    1844:	fec42703          	lw	a4,-20(s0)
    1848:	fa440793          	addi	a5,s0,-92
    184c:	00271713          	slli	a4,a4,0x2
    1850:	00f707b3          	add	a5,a4,a5
    1854:	0007a783          	lw	a5,0(a5)
    1858:	00003737          	lui	a4,0x3
    185c:	01870713          	addi	a4,a4,24 # 3018 <TCNT_stop+0x1610>
    1860:	00f707b3          	add	a5,a4,a5
    1864:	0007c783          	lbu	a5,0(a5)
    1868:	fef405a3          	sb	a5,-21(s0)
    186c:	800007b7          	lui	a5,0x80000
    1870:	feb44703          	lbu	a4,-21(s0)
    1874:	00e7a023          	sw	a4,0(a5) # 80000000 <a+0x7fffc684>
    1878:	fec42783          	lw	a5,-20(s0)
    187c:	fa079ee3          	bne	a5,zero,1838 <print_dec+0x98>
    1880:	000037b7          	lui	a5,0x3
    1884:	00078513          	addi	a0,a5,0 # 3000 <TCNT_stop+0x15f8>
    1888:	e11ff0ef          	jal	ra,1698 <print_str>
    188c:	06c12083          	lw	ra,108(sp)
    1890:	06812403          	lw	s0,104(sp)
    1894:	07010113          	addi	sp,sp,112
    1898:	00008067          	jalr	zero,0(ra)

0000189c <flash_leds>:
    189c:	fd010113          	addi	sp,sp,-48
    18a0:	02112623          	sw	ra,44(sp)
    18a4:	02812423          	sw	s0,40(sp)
    18a8:	03010413          	addi	s0,sp,48
    18ac:	fca42e23          	sw	a0,-36(s0)
    18b0:	fe042623          	sw	zero,-20(s0)
    18b4:	01c0006f          	jal	zero,18d0 <flash_leds+0x34>
    18b8:	800007b7          	lui	a5,0x80000
    18bc:	fdc42703          	lw	a4,-36(s0)
    18c0:	00e7a023          	sw	a4,0(a5) # 80000000 <a+0x7fffc684>
    18c4:	fec42783          	lw	a5,-20(s0)
    18c8:	00178793          	addi	a5,a5,1
    18cc:	fef42623          	sw	a5,-20(s0)
    18d0:	fec42703          	lw	a4,-20(s0)
    18d4:	0065b7b7          	lui	a5,0x65b
    18d8:	70f78793          	addi	a5,a5,1807 # 65b70f <a+0x657d93>
    18dc:	fce7dee3          	bge	a5,a4,18b8 <flash_leds+0x1c>
    18e0:	00000013          	addi	zero,zero,0
    18e4:	00000013          	addi	zero,zero,0
    18e8:	02c12083          	lw	ra,44(sp)
    18ec:	02812403          	lw	s0,40(sp)
    18f0:	03010113          	addi	sp,sp,48
    18f4:	00008067          	jalr	zero,0(ra)

000018f8 <SENSOR_fetch>:
    18f8:	fe010113          	addi	sp,sp,-32
    18fc:	00112e23          	sw	ra,28(sp)
    1900:	00812c23          	sw	s0,24(sp)
    1904:	02010413          	addi	s0,sp,32
    1908:	820007b7          	lui	a5,0x82000
    190c:	00478793          	addi	a5,a5,4 # 82000004 <a+0x81ffc688>
    1910:	0007a783          	lw	a5,0(a5)
    1914:	fef42623          	sw	a5,-20(s0)
    1918:	820007b7          	lui	a5,0x82000
    191c:	0007a703          	lw	a4,0(a5) # 82000000 <a+0x81ffc684>
    1920:	820007b7          	lui	a5,0x82000
    1924:	00176713          	ori	a4,a4,1
    1928:	00e7a023          	sw	a4,0(a5) # 82000000 <a+0x81ffc684>
    192c:	820007b7          	lui	a5,0x82000
    1930:	0007a703          	lw	a4,0(a5) # 82000000 <a+0x81ffc684>
    1934:	820007b7          	lui	a5,0x82000
    1938:	ffe77713          	andi	a4,a4,-2
    193c:	00e7a023          	sw	a4,0(a5) # 82000000 <a+0x81ffc684>
    1940:	fec42783          	lw	a5,-20(s0)
    1944:	00078513          	addi	a0,a5,0
    1948:	01c12083          	lw	ra,28(sp)
    194c:	01812403          	lw	s0,24(sp)
    1950:	02010113          	addi	sp,sp,32
    1954:	00008067          	jalr	zero,0(ra)

00001958 <TCNT_start>:
    1958:	ff010113          	addi	sp,sp,-16
    195c:	00112623          	sw	ra,12(sp)
    1960:	00812423          	sw	s0,8(sp)
    1964:	01010413          	addi	s0,sp,16
    1968:	810007b7          	lui	a5,0x81000
    196c:	0007a703          	lw	a4,0(a5) # 81000000 <a+0x80ffc684>
    1970:	810007b7          	lui	a5,0x81000
    1974:	00376713          	ori	a4,a4,3
    1978:	00e7a023          	sw	a4,0(a5) # 81000000 <a+0x80ffc684>
    197c:	00000013          	addi	zero,zero,0
    1980:	00c12083          	lw	ra,12(sp)
    1984:	00812403          	lw	s0,8(sp)
    1988:	01010113          	addi	sp,sp,16
    198c:	00008067          	jalr	zero,0(ra)

00001990 <TCNT_start_div8>:
    1990:	ff010113          	addi	sp,sp,-16
    1994:	00112623          	sw	ra,12(sp)
    1998:	00812423          	sw	s0,8(sp)
    199c:	01010413          	addi	s0,sp,16
    19a0:	068000ef          	jal	ra,1a08 <TCNT_stop>
    19a4:	810007b7          	lui	a5,0x81000
    19a8:	0007a703          	lw	a4,0(a5) # 81000000 <a+0x80ffc684>
    19ac:	810007b7          	lui	a5,0x81000
    19b0:	00176713          	ori	a4,a4,1
    19b4:	00e7a023          	sw	a4,0(a5) # 81000000 <a+0x80ffc684>
    19b8:	00000013          	addi	zero,zero,0
    19bc:	00c12083          	lw	ra,12(sp)
    19c0:	00812403          	lw	s0,8(sp)
    19c4:	01010113          	addi	sp,sp,16
    19c8:	00008067          	jalr	zero,0(ra)

000019cc <TCNT_start_div16>:
    19cc:	ff010113          	addi	sp,sp,-16
    19d0:	00112623          	sw	ra,12(sp)
    19d4:	00812423          	sw	s0,8(sp)
    19d8:	01010413          	addi	s0,sp,16
    19dc:	02c000ef          	jal	ra,1a08 <TCNT_stop>
    19e0:	810007b7          	lui	a5,0x81000
    19e4:	0007a703          	lw	a4,0(a5) # 81000000 <a+0x80ffc684>
    19e8:	810007b7          	lui	a5,0x81000
    19ec:	00276713          	ori	a4,a4,2
    19f0:	00e7a023          	sw	a4,0(a5) # 81000000 <a+0x80ffc684>
    19f4:	00000013          	addi	zero,zero,0
    19f8:	00c12083          	lw	ra,12(sp)
    19fc:	00812403          	lw	s0,8(sp)
    1a00:	01010113          	addi	sp,sp,16
    1a04:	00008067          	jalr	zero,0(ra)

00001a08 <TCNT_stop>:
    1a08:	ff010113          	addi	sp,sp,-16
    1a0c:	00112623          	sw	ra,12(sp)
    1a10:	00812423          	sw	s0,8(sp)
    1a14:	01010413          	addi	s0,sp,16
    1a18:	810007b7          	lui	a5,0x81000
    1a1c:	0007a703          	lw	a4,0(a5) # 81000000 <a+0x80ffc684>
    1a20:	810007b7          	lui	a5,0x81000
    1a24:	ffc77713          	andi	a4,a4,-4
    1a28:	00e7a023          	sw	a4,0(a5) # 81000000 <a+0x80ffc684>
    1a2c:	00000013          	addi	zero,zero,0
    1a30:	00c12083          	lw	ra,12(sp)
    1a34:	00812403          	lw	s0,8(sp)
    1a38:	01010113          	addi	sp,sp,16
    1a3c:	00008067          	jalr	zero,0(ra)

Disassembly of section .rodata:

00002000 <.rodata>:
	...
    3000:	000a                	.insn	2, 0x000a
    3002:	0000                	.insn	2, 0x
    3004:	3130                	.insn	2, 0x3130
    3006:	3332                	.insn	2, 0x3332
    3008:	3534                	.insn	2, 0x3534
    300a:	3736                	.insn	2, 0x3736
    300c:	3938                	.insn	2, 0x3938
    300e:	4241                	.insn	2, 0x4241
    3010:	46454443          	.insn	4, 0x46454443
    3014:	0000                	.insn	2, 0x
    3016:	0000                	.insn	2, 0x
    3018:	3130                	.insn	2, 0x3130
    301a:	3332                	.insn	2, 0x3332
    301c:	3534                	.insn	2, 0x3534
    301e:	3736                	.insn	2, 0x3736
    3020:	3938                	.insn	2, 0x3938
	...

Disassembly of section .eh_frame:

00003024 <.eh_frame>:
    3024:	0010                	.insn	2, 0x0010
    3026:	0000                	.insn	2, 0x
    3028:	0000                	.insn	2, 0x
    302a:	0000                	.insn	2, 0x
    302c:	00527a03          	.insn	4, 0x00527a03
    3030:	7c01                	.insn	2, 0x7c01
    3032:	0101                	.insn	2, 0x0101
    3034:	00020c1b          	.insn	4, 0x00020c1b
    3038:	0024                	.insn	2, 0x0024
    303a:	0000                	.insn	2, 0x
    303c:	0018                	.insn	2, 0x0018
    303e:	0000                	.insn	2, 0x
    3040:	d1f0                	.insn	2, 0xd1f0
    3042:	ffff                	.insn	2, 0xffff
    3044:	0058                	.insn	2, 0x0058
    3046:	0000                	.insn	2, 0x
    3048:	4400                	.insn	2, 0x4400
    304a:	200e                	.insn	2, 0x200e
    304c:	8148                	.insn	2, 0x8148
    304e:	8801                	.insn	2, 0x8801
    3050:	4402                	.insn	2, 0x4402
    3052:	080c                	.insn	2, 0x080c
    3054:	0200                	.insn	2, 0x0200
    3056:	c13c                	.insn	2, 0xc13c
    3058:	c844                	.insn	2, 0xc844
    305a:	020c                	.insn	2, 0x020c
    305c:	4420                	.insn	2, 0x4420
    305e:	000e                	.insn	2, 0x000e
    3060:	0024                	.insn	2, 0x0024
    3062:	0000                	.insn	2, 0x
    3064:	0040                	.insn	2, 0x0040
    3066:	0000                	.insn	2, 0x
    3068:	d220                	.insn	2, 0xd220
    306a:	ffff                	.insn	2, 0xffff
    306c:	0064                	.insn	2, 0x0064
    306e:	0000                	.insn	2, 0x
    3070:	4400                	.insn	2, 0x4400
    3072:	200e                	.insn	2, 0x200e
    3074:	8148                	.insn	2, 0x8148
    3076:	8801                	.insn	2, 0x8801
    3078:	4402                	.insn	2, 0x4402
    307a:	080c                	.insn	2, 0x080c
    307c:	0200                	.insn	2, 0x0200
    307e:	c148                	.insn	2, 0xc148
    3080:	c844                	.insn	2, 0xc844
    3082:	020c                	.insn	2, 0x020c
    3084:	4420                	.insn	2, 0x4420
    3086:	000e                	.insn	2, 0x000e
    3088:	0024                	.insn	2, 0x0024
    308a:	0000                	.insn	2, 0x
    308c:	0068                	.insn	2, 0x0068
    308e:	0000                	.insn	2, 0x
    3090:	d25c                	.insn	2, 0xd25c
    3092:	ffff                	.insn	2, 0xffff
    3094:	00a8                	.insn	2, 0x00a8
    3096:	0000                	.insn	2, 0x
    3098:	4400                	.insn	2, 0x4400
    309a:	200e                	.insn	2, 0x200e
    309c:	8148                	.insn	2, 0x8148
    309e:	8801                	.insn	2, 0x8801
    30a0:	4402                	.insn	2, 0x4402
    30a2:	080c                	.insn	2, 0x080c
    30a4:	0200                	.insn	2, 0x0200
    30a6:	c18c                	.insn	2, 0xc18c
    30a8:	c844                	.insn	2, 0xc844
    30aa:	020c                	.insn	2, 0x020c
    30ac:	4420                	.insn	2, 0x4420
    30ae:	000e                	.insn	2, 0x000e
    30b0:	0024                	.insn	2, 0x0024
    30b2:	0000                	.insn	2, 0x
    30b4:	0090                	.insn	2, 0x0090
    30b6:	0000                	.insn	2, 0x
    30b8:	d2dc                	.insn	2, 0xd2dc
    30ba:	ffff                	.insn	2, 0xffff
    30bc:	00a0                	.insn	2, 0x00a0
    30be:	0000                	.insn	2, 0x
    30c0:	4400                	.insn	2, 0x4400
    30c2:	300e                	.insn	2, 0x300e
    30c4:	8148                	.insn	2, 0x8148
    30c6:	8801                	.insn	2, 0x8801
    30c8:	4402                	.insn	2, 0x4402
    30ca:	080c                	.insn	2, 0x080c
    30cc:	0200                	.insn	2, 0x0200
    30ce:	c184                	.insn	2, 0xc184
    30d0:	c844                	.insn	2, 0xc844
    30d2:	020c                	.insn	2, 0x020c
    30d4:	4430                	.insn	2, 0x4430
    30d6:	000e                	.insn	2, 0x000e
    30d8:	0024                	.insn	2, 0x0024
    30da:	0000                	.insn	2, 0x
    30dc:	00b8                	.insn	2, 0x00b8
    30de:	0000                	.insn	2, 0x
    30e0:	d354                	.insn	2, 0xd354
    30e2:	ffff                	.insn	2, 0xffff
    30e4:	0094                	.insn	2, 0x0094
    30e6:	0000                	.insn	2, 0x
    30e8:	4400                	.insn	2, 0x4400
    30ea:	300e                	.insn	2, 0x300e
    30ec:	8148                	.insn	2, 0x8148
    30ee:	8801                	.insn	2, 0x8801
    30f0:	4402                	.insn	2, 0x4402
    30f2:	080c                	.insn	2, 0x080c
    30f4:	0200                	.insn	2, 0x0200
    30f6:	c178                	.insn	2, 0xc178
    30f8:	c844                	.insn	2, 0xc844
    30fa:	020c                	.insn	2, 0x020c
    30fc:	4430                	.insn	2, 0x4430
    30fe:	000e                	.insn	2, 0x000e
    3100:	0028                	.insn	2, 0x0028
    3102:	0000                	.insn	2, 0x
    3104:	00e0                	.insn	2, 0x00e0
    3106:	0000                	.insn	2, 0x
    3108:	d3c0                	.insn	2, 0xd3c0
    310a:	ffff                	.insn	2, 0xffff
    310c:	0120                	.insn	2, 0x0120
    310e:	0000                	.insn	2, 0x
    3110:	4400                	.insn	2, 0x4400
    3112:	200e                	.insn	2, 0x200e
    3114:	8148                	.insn	2, 0x8148
    3116:	8801                	.insn	2, 0x8801
    3118:	4402                	.insn	2, 0x4402
    311a:	080c                	.insn	2, 0x080c
    311c:	0300                	.insn	2, 0x0300
    311e:	0104                	.insn	2, 0x0104
    3120:	44c1                	.insn	2, 0x44c1
    3122:	0cc8                	.insn	2, 0x0cc8
    3124:	2002                	.insn	2, 0x2002
    3126:	0e44                	.insn	2, 0x0e44
    3128:	0000                	.insn	2, 0x
    312a:	0000                	.insn	2, 0x
    312c:	0024                	.insn	2, 0x0024
    312e:	0000                	.insn	2, 0x
    3130:	010c                	.insn	2, 0x010c
    3132:	0000                	.insn	2, 0x
    3134:	d4b4                	.insn	2, 0xd4b4
    3136:	ffff                	.insn	2, 0xffff
    3138:	0098                	.insn	2, 0x0098
    313a:	0000                	.insn	2, 0x
    313c:	4400                	.insn	2, 0x4400
    313e:	300e                	.insn	2, 0x300e
    3140:	8148                	.insn	2, 0x8148
    3142:	8801                	.insn	2, 0x8801
    3144:	4402                	.insn	2, 0x4402
    3146:	080c                	.insn	2, 0x080c
    3148:	0200                	.insn	2, 0x0200
    314a:	c17c                	.insn	2, 0xc17c
    314c:	c844                	.insn	2, 0xc844
    314e:	020c                	.insn	2, 0x020c
    3150:	4430                	.insn	2, 0x4430
    3152:	000e                	.insn	2, 0x000e
    3154:	0024                	.insn	2, 0x0024
    3156:	0000                	.insn	2, 0x
    3158:	0134                	.insn	2, 0x0134
    315a:	0000                	.insn	2, 0x
    315c:	d524                	.insn	2, 0xd524
    315e:	ffff                	.insn	2, 0xffff
    3160:	0110                	.insn	2, 0x0110
    3162:	0000                	.insn	2, 0x
    3164:	4400                	.insn	2, 0x4400
    3166:	300e                	.insn	2, 0x300e
    3168:	8148                	.insn	2, 0x8148
    316a:	8801                	.insn	2, 0x8801
    316c:	4402                	.insn	2, 0x4402
    316e:	080c                	.insn	2, 0x080c
    3170:	0200                	.insn	2, 0x0200
    3172:	c1f4                	.insn	2, 0xc1f4
    3174:	c844                	.insn	2, 0xc844
    3176:	020c                	.insn	2, 0x020c
    3178:	4430                	.insn	2, 0x4430
    317a:	000e                	.insn	2, 0x000e
    317c:	0028                	.insn	2, 0x0028
    317e:	0000                	.insn	2, 0x
    3180:	015c                	.insn	2, 0x015c
    3182:	0000                	.insn	2, 0x
    3184:	d60c                	.insn	2, 0xd60c
    3186:	ffff                	.insn	2, 0xffff
    3188:	008c                	.insn	2, 0x008c
    318a:	0000                	.insn	2, 0x
    318c:	4400                	.insn	2, 0x4400
    318e:	200e                	.insn	2, 0x200e
    3190:	814c                	.insn	2, 0x814c
    3192:	8801                	.insn	2, 0x8801
    3194:	8902                	.insn	2, 0x8902
    3196:	080c4403          	lbu	s0,128(s8)
    319a:	0200                	.insn	2, 0x0200
    319c:	c168                	.insn	2, 0xc168
    319e:	c844                	.insn	2, 0xc844
    31a0:	020c                	.insn	2, 0x020c
    31a2:	4420                	.insn	2, 0x4420
    31a4:	44c9                	.insn	2, 0x44c9
    31a6:	000e                	.insn	2, 0x000e
    31a8:	0028                	.insn	2, 0x0028
    31aa:	0000                	.insn	2, 0x
    31ac:	0188                	.insn	2, 0x0188
    31ae:	0000                	.insn	2, 0x
    31b0:	d66c                	.insn	2, 0xd66c
    31b2:	ffff                	.insn	2, 0xffff
    31b4:	0190                	.insn	2, 0x0190
    31b6:	0000                	.insn	2, 0x
    31b8:	4400                	.insn	2, 0x4400
    31ba:	300e                	.insn	2, 0x300e
    31bc:	8148                	.insn	2, 0x8148
    31be:	8801                	.insn	2, 0x8801
    31c0:	4402                	.insn	2, 0x4402
    31c2:	080c                	.insn	2, 0x080c
    31c4:	0300                	.insn	2, 0x0300
    31c6:	0174                	.insn	2, 0x0174
    31c8:	44c1                	.insn	2, 0x44c1
    31ca:	0cc8                	.insn	2, 0x0cc8
    31cc:	3002                	.insn	2, 0x3002
    31ce:	0e44                	.insn	2, 0x0e44
    31d0:	0000                	.insn	2, 0x
    31d2:	0000                	.insn	2, 0x
    31d4:	0028                	.insn	2, 0x0028
    31d6:	0000                	.insn	2, 0x
    31d8:	01b4                	.insn	2, 0x01b4
    31da:	0000                	.insn	2, 0x
    31dc:	d7d0                	.insn	2, 0xd7d0
    31de:	ffff                	.insn	2, 0xffff
    31e0:	015c                	.insn	2, 0x015c
    31e2:	0000                	.insn	2, 0x
    31e4:	4400                	.insn	2, 0x4400
    31e6:	400e                	.insn	2, 0x400e
    31e8:	8148                	.insn	2, 0x8148
    31ea:	8801                	.insn	2, 0x8801
    31ec:	4402                	.insn	2, 0x4402
    31ee:	080c                	.insn	2, 0x080c
    31f0:	0300                	.insn	2, 0x0300
    31f2:	0140                	.insn	2, 0x0140
    31f4:	44c1                	.insn	2, 0x44c1
    31f6:	0cc8                	.insn	2, 0x0cc8
    31f8:	4002                	.insn	2, 0x4002
    31fa:	0e44                	.insn	2, 0x0e44
    31fc:	0000                	.insn	2, 0x
    31fe:	0000                	.insn	2, 0x
    3200:	0028                	.insn	2, 0x0028
    3202:	0000                	.insn	2, 0x
    3204:	01e0                	.insn	2, 0x01e0
    3206:	0000                	.insn	2, 0x
    3208:	d900                	.insn	2, 0xd900
    320a:	ffff                	.insn	2, 0xffff
    320c:	0178                	.insn	2, 0x0178
    320e:	0000                	.insn	2, 0x
    3210:	4400                	.insn	2, 0x4400
    3212:	300e                	.insn	2, 0x300e
    3214:	8148                	.insn	2, 0x8148
    3216:	8801                	.insn	2, 0x8801
    3218:	4402                	.insn	2, 0x4402
    321a:	080c                	.insn	2, 0x080c
    321c:	0300                	.insn	2, 0x0300
    321e:	015c                	.insn	2, 0x015c
    3220:	44c1                	.insn	2, 0x44c1
    3222:	0cc8                	.insn	2, 0x0cc8
    3224:	3002                	.insn	2, 0x3002
    3226:	0e44                	.insn	2, 0x0e44
    3228:	0000                	.insn	2, 0x
    322a:	0000                	.insn	2, 0x
    322c:	0024                	.insn	2, 0x0024
    322e:	0000                	.insn	2, 0x
    3230:	020c                	.insn	2, 0x020c
    3232:	0000                	.insn	2, 0x
    3234:	da4c                	.insn	2, 0xda4c
    3236:	ffff                	.insn	2, 0xffff
    3238:	00b8                	.insn	2, 0x00b8
    323a:	0000                	.insn	2, 0x
    323c:	4400                	.insn	2, 0x4400
    323e:	200e                	.insn	2, 0x200e
    3240:	8148                	.insn	2, 0x8148
    3242:	8801                	.insn	2, 0x8801
    3244:	4402                	.insn	2, 0x4402
    3246:	080c                	.insn	2, 0x080c
    3248:	0200                	.insn	2, 0x0200
    324a:	c19c                	.insn	2, 0xc19c
    324c:	c844                	.insn	2, 0xc844
    324e:	020c                	.insn	2, 0x020c
    3250:	4420                	.insn	2, 0x4420
    3252:	000e                	.insn	2, 0x000e
    3254:	0024                	.insn	2, 0x0024
    3256:	0000                	.insn	2, 0x
    3258:	0234                	.insn	2, 0x0234
    325a:	0000                	.insn	2, 0x
    325c:	dadc                	.insn	2, 0xdadc
    325e:	ffff                	.insn	2, 0xffff
    3260:	007c                	.insn	2, 0x007c
    3262:	0000                	.insn	2, 0x
    3264:	4400                	.insn	2, 0x4400
    3266:	200e                	.insn	2, 0x200e
    3268:	8148                	.insn	2, 0x8148
    326a:	8801                	.insn	2, 0x8801
    326c:	4402                	.insn	2, 0x4402
    326e:	080c                	.insn	2, 0x080c
    3270:	0200                	.insn	2, 0x0200
    3272:	c160                	.insn	2, 0xc160
    3274:	c844                	.insn	2, 0xc844
    3276:	020c                	.insn	2, 0x020c
    3278:	4420                	.insn	2, 0x4420
    327a:	000e                	.insn	2, 0x000e
    327c:	0024                	.insn	2, 0x0024
    327e:	0000                	.insn	2, 0x
    3280:	025c                	.insn	2, 0x025c
    3282:	0000                	.insn	2, 0x
    3284:	db30                	.insn	2, 0xdb30
    3286:	ffff                	.insn	2, 0xffff
    3288:	009c                	.insn	2, 0x009c
    328a:	0000                	.insn	2, 0x
    328c:	4400                	.insn	2, 0x4400
    328e:	200e                	.insn	2, 0x200e
    3290:	8148                	.insn	2, 0x8148
    3292:	8801                	.insn	2, 0x8801
    3294:	4402                	.insn	2, 0x4402
    3296:	080c                	.insn	2, 0x080c
    3298:	0200                	.insn	2, 0x0200
    329a:	c180                	.insn	2, 0xc180
    329c:	c844                	.insn	2, 0xc844
    329e:	020c                	.insn	2, 0x020c
    32a0:	4420                	.insn	2, 0x4420
    32a2:	000e                	.insn	2, 0x000e
    32a4:	0028                	.insn	2, 0x0028
    32a6:	0000                	.insn	2, 0x
    32a8:	0284                	.insn	2, 0x0284
    32aa:	0000                	.insn	2, 0x
    32ac:	dba4                	.insn	2, 0xdba4
    32ae:	ffff                	.insn	2, 0xffff
    32b0:	015c                	.insn	2, 0x015c
    32b2:	0000                	.insn	2, 0x
    32b4:	4400                	.insn	2, 0x4400
    32b6:	200e                	.insn	2, 0x200e
    32b8:	8148                	.insn	2, 0x8148
    32ba:	8801                	.insn	2, 0x8801
    32bc:	4402                	.insn	2, 0x4402
    32be:	080c                	.insn	2, 0x080c
    32c0:	0300                	.insn	2, 0x0300
    32c2:	0140                	.insn	2, 0x0140
    32c4:	44c1                	.insn	2, 0x44c1
    32c6:	0cc8                	.insn	2, 0x0cc8
    32c8:	2002                	.insn	2, 0x2002
    32ca:	0e44                	.insn	2, 0x0e44
    32cc:	0000                	.insn	2, 0x
    32ce:	0000                	.insn	2, 0x
    32d0:	0024                	.insn	2, 0x0024
    32d2:	0000                	.insn	2, 0x
    32d4:	02b0                	.insn	2, 0x02b0
    32d6:	0000                	.insn	2, 0x
    32d8:	dcd4                	.insn	2, 0xdcd4
    32da:	ffff                	.insn	2, 0xffff
    32dc:	0028                	.insn	2, 0x0028
    32de:	0000                	.insn	2, 0x
    32e0:	4400                	.insn	2, 0x4400
    32e2:	200e                	.insn	2, 0x200e
    32e4:	8148                	.insn	2, 0x8148
    32e6:	8801                	.insn	2, 0x8801
    32e8:	4402                	.insn	2, 0x4402
    32ea:	080c                	.insn	2, 0x080c
    32ec:	4c00                	.insn	2, 0x4c00
    32ee:	44c1                	.insn	2, 0x44c1
    32f0:	0cc8                	.insn	2, 0x0cc8
    32f2:	2002                	.insn	2, 0x2002
    32f4:	0e44                	.insn	2, 0x0e44
    32f6:	0000                	.insn	2, 0x
    32f8:	001c                	.insn	2, 0x001c
    32fa:	0000                	.insn	2, 0x
    32fc:	02d8                	.insn	2, 0x02d8
    32fe:	0000                	.insn	2, 0x
    3300:	dcd4                	.insn	2, 0xdcd4
    3302:	ffff                	.insn	2, 0xffff
    3304:	00fc                	.insn	2, 0x00fc
    3306:	0000                	.insn	2, 0x
    3308:	4400                	.insn	2, 0x4400
    330a:	200e                	.insn	2, 0x200e
    330c:	8148                	.insn	2, 0x8148
    330e:	8801                	.insn	2, 0x8801
    3310:	4402                	.insn	2, 0x4402
    3312:	080c                	.insn	2, 0x080c
    3314:	0000                	.insn	2, 0x
    3316:	0000                	.insn	2, 0x
    3318:	0024                	.insn	2, 0x0024
    331a:	0000                	.insn	2, 0x
    331c:	02f8                	.insn	2, 0x02f8
    331e:	0000                	.insn	2, 0x
    3320:	ddb0                	.insn	2, 0xddb0
    3322:	ffff                	.insn	2, 0xffff
    3324:	0074                	.insn	2, 0x0074
    3326:	0000                	.insn	2, 0x
    3328:	4400                	.insn	2, 0x4400
    332a:	300e                	.insn	2, 0x300e
    332c:	8148                	.insn	2, 0x8148
    332e:	8801                	.insn	2, 0x8801
    3330:	4402                	.insn	2, 0x4402
    3332:	080c                	.insn	2, 0x080c
    3334:	0200                	.insn	2, 0x0200
    3336:	c158                	.insn	2, 0xc158
    3338:	c844                	.insn	2, 0xc844
    333a:	020c                	.insn	2, 0x020c
    333c:	4430                	.insn	2, 0x4430
    333e:	000e                	.insn	2, 0x000e
    3340:	0024                	.insn	2, 0x0024
    3342:	0000                	.insn	2, 0x
    3344:	0320                	.insn	2, 0x0320
    3346:	0000                	.insn	2, 0x
    3348:	ddfc                	.insn	2, 0xddfc
    334a:	ffff                	.insn	2, 0xffff
    334c:	0098                	.insn	2, 0x0098
    334e:	0000                	.insn	2, 0x
    3350:	4400                	.insn	2, 0x4400
    3352:	300e                	.insn	2, 0x300e
    3354:	8148                	.insn	2, 0x8148
    3356:	8801                	.insn	2, 0x8801
    3358:	4402                	.insn	2, 0x4402
    335a:	080c                	.insn	2, 0x080c
    335c:	0200                	.insn	2, 0x0200
    335e:	c17c                	.insn	2, 0xc17c
    3360:	c844                	.insn	2, 0xc844
    3362:	020c                	.insn	2, 0x020c
    3364:	4430                	.insn	2, 0x4430
    3366:	000e                	.insn	2, 0x000e
    3368:	0024                	.insn	2, 0x0024
    336a:	0000                	.insn	2, 0x
    336c:	0348                	.insn	2, 0x0348
    336e:	0000                	.insn	2, 0x
    3370:	de6c                	.insn	2, 0xde6c
    3372:	ffff                	.insn	2, 0xffff
    3374:	005c                	.insn	2, 0x005c
    3376:	0000                	.insn	2, 0x
    3378:	4400                	.insn	2, 0x4400
    337a:	200e                	.insn	2, 0x200e
    337c:	8148                	.insn	2, 0x8148
    337e:	8801                	.insn	2, 0x8801
    3380:	4402                	.insn	2, 0x4402
    3382:	080c                	.insn	2, 0x080c
    3384:	0200                	.insn	2, 0x0200
    3386:	c140                	.insn	2, 0xc140
    3388:	c844                	.insn	2, 0xc844
    338a:	020c                	.insn	2, 0x020c
    338c:	4420                	.insn	2, 0x4420
    338e:	000e                	.insn	2, 0x000e
    3390:	002c                	.insn	2, 0x002c
    3392:	0000                	.insn	2, 0x
    3394:	0370                	.insn	2, 0x0370
    3396:	0000                	.insn	2, 0x
    3398:	dea0                	.insn	2, 0xdea0
    339a:	ffff                	.insn	2, 0xffff
    339c:	0428                	.insn	2, 0x0428
    339e:	0000                	.insn	2, 0x
    33a0:	4400                	.insn	2, 0x4400
    33a2:	200e                	.insn	2, 0x200e
    33a4:	814c                	.insn	2, 0x814c
    33a6:	8801                	.insn	2, 0x8801
    33a8:	8902                	.insn	2, 0x8902
    33aa:	080c4403          	lbu	s0,128(s8)
    33ae:	0300                	.insn	2, 0x0300
    33b0:	0404                	.insn	2, 0x0404
    33b2:	44c1                	.insn	2, 0x44c1
    33b4:	0cc8                	.insn	2, 0x0cc8
    33b6:	2002                	.insn	2, 0x2002
    33b8:	c944                	.insn	2, 0xc944
    33ba:	0e44                	.insn	2, 0x0e44
    33bc:	0000                	.insn	2, 0x
    33be:	0000                	.insn	2, 0x
    33c0:	0024                	.insn	2, 0x0024
    33c2:	0000                	.insn	2, 0x
    33c4:	03a0                	.insn	2, 0x03a0
    33c6:	0000                	.insn	2, 0x
    33c8:	e298                	.insn	2, 0xe298
    33ca:	ffff                	.insn	2, 0xffff
    33cc:	0038                	.insn	2, 0x0038
    33ce:	0000                	.insn	2, 0x
    33d0:	4400                	.insn	2, 0x4400
    33d2:	200e                	.insn	2, 0x200e
    33d4:	8148                	.insn	2, 0x8148
    33d6:	8801                	.insn	2, 0x8801
    33d8:	4402                	.insn	2, 0x4402
    33da:	080c                	.insn	2, 0x080c
    33dc:	5c00                	.insn	2, 0x5c00
    33de:	44c1                	.insn	2, 0x44c1
    33e0:	0cc8                	.insn	2, 0x0cc8
    33e2:	2002                	.insn	2, 0x2002
    33e4:	0e44                	.insn	2, 0x0e44
    33e6:	0000                	.insn	2, 0x
    33e8:	0024                	.insn	2, 0x0024
    33ea:	0000                	.insn	2, 0x
    33ec:	03c8                	.insn	2, 0x03c8
    33ee:	0000                	.insn	2, 0x
    33f0:	e2a8                	.insn	2, 0xe2a8
    33f2:	ffff                	.insn	2, 0xffff
    33f4:	0054                	.insn	2, 0x0054
    33f6:	0000                	.insn	2, 0x
    33f8:	4400                	.insn	2, 0x4400
    33fa:	200e                	.insn	2, 0x200e
    33fc:	8148                	.insn	2, 0x8148
    33fe:	8801                	.insn	2, 0x8801
    3400:	4402                	.insn	2, 0x4402
    3402:	080c                	.insn	2, 0x080c
    3404:	7800                	.insn	2, 0x7800
    3406:	44c1                	.insn	2, 0x44c1
    3408:	0cc8                	.insn	2, 0x0cc8
    340a:	2002                	.insn	2, 0x2002
    340c:	0e44                	.insn	2, 0x0e44
    340e:	0000                	.insn	2, 0x
    3410:	0024                	.insn	2, 0x0024
    3412:	0000                	.insn	2, 0x
    3414:	03f0                	.insn	2, 0x03f0
    3416:	0000                	.insn	2, 0x
    3418:	e2d4                	.insn	2, 0xe2d4
    341a:	ffff                	.insn	2, 0xffff
    341c:	00b4                	.insn	2, 0x00b4
    341e:	0000                	.insn	2, 0x
    3420:	4400                	.insn	2, 0x4400
    3422:	300e                	.insn	2, 0x300e
    3424:	8148                	.insn	2, 0x8148
    3426:	8801                	.insn	2, 0x8801
    3428:	4402                	.insn	2, 0x4402
    342a:	080c                	.insn	2, 0x080c
    342c:	0200                	.insn	2, 0x0200
    342e:	c198                	.insn	2, 0xc198
    3430:	c844                	.insn	2, 0xc844
    3432:	020c                	.insn	2, 0x020c
    3434:	4430                	.insn	2, 0x4430
    3436:	000e                	.insn	2, 0x000e
    3438:	0024                	.insn	2, 0x0024
    343a:	0000                	.insn	2, 0x
    343c:	0418                	.insn	2, 0x0418
    343e:	0000                	.insn	2, 0x
    3440:	e360                	.insn	2, 0xe360
    3442:	ffff                	.insn	2, 0xffff
    3444:	00fc                	.insn	2, 0x00fc
    3446:	0000                	.insn	2, 0x
    3448:	4400                	.insn	2, 0x4400
    344a:	700e                	.insn	2, 0x700e
    344c:	8148                	.insn	2, 0x8148
    344e:	8801                	.insn	2, 0x8801
    3450:	4402                	.insn	2, 0x4402
    3452:	080c                	.insn	2, 0x080c
    3454:	0200                	.insn	2, 0x0200
    3456:	c1e0                	.insn	2, 0xc1e0
    3458:	c844                	.insn	2, 0xc844
    345a:	020c                	.insn	2, 0x020c
    345c:	4470                	.insn	2, 0x4470
    345e:	000e                	.insn	2, 0x000e
    3460:	0024                	.insn	2, 0x0024
    3462:	0000                	.insn	2, 0x
    3464:	0440                	.insn	2, 0x0440
    3466:	0000                	.insn	2, 0x
    3468:	e434                	.insn	2, 0xe434
    346a:	ffff                	.insn	2, 0xffff
    346c:	005c                	.insn	2, 0x005c
    346e:	0000                	.insn	2, 0x
    3470:	4400                	.insn	2, 0x4400
    3472:	300e                	.insn	2, 0x300e
    3474:	8148                	.insn	2, 0x8148
    3476:	8801                	.insn	2, 0x8801
    3478:	4402                	.insn	2, 0x4402
    347a:	080c                	.insn	2, 0x080c
    347c:	0200                	.insn	2, 0x0200
    347e:	c140                	.insn	2, 0xc140
    3480:	c844                	.insn	2, 0xc844
    3482:	020c                	.insn	2, 0x020c
    3484:	4430                	.insn	2, 0x4430
    3486:	000e                	.insn	2, 0x000e
    3488:	0024                	.insn	2, 0x0024
    348a:	0000                	.insn	2, 0x
    348c:	0468                	.insn	2, 0x0468
    348e:	0000                	.insn	2, 0x
    3490:	e468                	.insn	2, 0xe468
    3492:	ffff                	.insn	2, 0xffff
    3494:	0060                	.insn	2, 0x0060
    3496:	0000                	.insn	2, 0x
    3498:	4400                	.insn	2, 0x4400
    349a:	200e                	.insn	2, 0x200e
    349c:	8148                	.insn	2, 0x8148
    349e:	8801                	.insn	2, 0x8801
    34a0:	4402                	.insn	2, 0x4402
    34a2:	080c                	.insn	2, 0x080c
    34a4:	0200                	.insn	2, 0x0200
    34a6:	c144                	.insn	2, 0xc144
    34a8:	c844                	.insn	2, 0xc844
    34aa:	020c                	.insn	2, 0x020c
    34ac:	4420                	.insn	2, 0x4420
    34ae:	000e                	.insn	2, 0x000e
    34b0:	0024                	.insn	2, 0x0024
    34b2:	0000                	.insn	2, 0x
    34b4:	0490                	.insn	2, 0x0490
    34b6:	0000                	.insn	2, 0x
    34b8:	e4a0                	.insn	2, 0xe4a0
    34ba:	ffff                	.insn	2, 0xffff
    34bc:	0038                	.insn	2, 0x0038
    34be:	0000                	.insn	2, 0x
    34c0:	4400                	.insn	2, 0x4400
    34c2:	100e                	.insn	2, 0x100e
    34c4:	8148                	.insn	2, 0x8148
    34c6:	8801                	.insn	2, 0x8801
    34c8:	4402                	.insn	2, 0x4402
    34ca:	080c                	.insn	2, 0x080c
    34cc:	5c00                	.insn	2, 0x5c00
    34ce:	44c1                	.insn	2, 0x44c1
    34d0:	0cc8                	.insn	2, 0x0cc8
    34d2:	1002                	.insn	2, 0x1002
    34d4:	0e44                	.insn	2, 0x0e44
    34d6:	0000                	.insn	2, 0x
    34d8:	0024                	.insn	2, 0x0024
    34da:	0000                	.insn	2, 0x
    34dc:	04b8                	.insn	2, 0x04b8
    34de:	0000                	.insn	2, 0x
    34e0:	e4b0                	.insn	2, 0xe4b0
    34e2:	ffff                	.insn	2, 0xffff
    34e4:	003c                	.insn	2, 0x003c
    34e6:	0000                	.insn	2, 0x
    34e8:	4400                	.insn	2, 0x4400
    34ea:	100e                	.insn	2, 0x100e
    34ec:	8148                	.insn	2, 0x8148
    34ee:	8801                	.insn	2, 0x8801
    34f0:	4402                	.insn	2, 0x4402
    34f2:	080c                	.insn	2, 0x080c
    34f4:	6000                	.insn	2, 0x6000
    34f6:	44c1                	.insn	2, 0x44c1
    34f8:	0cc8                	.insn	2, 0x0cc8
    34fa:	1002                	.insn	2, 0x1002
    34fc:	0e44                	.insn	2, 0x0e44
    34fe:	0000                	.insn	2, 0x
    3500:	0024                	.insn	2, 0x0024
    3502:	0000                	.insn	2, 0x
    3504:	04e0                	.insn	2, 0x04e0
    3506:	0000                	.insn	2, 0x
    3508:	e4c4                	.insn	2, 0xe4c4
    350a:	ffff                	.insn	2, 0xffff
    350c:	003c                	.insn	2, 0x003c
    350e:	0000                	.insn	2, 0x
    3510:	4400                	.insn	2, 0x4400
    3512:	100e                	.insn	2, 0x100e
    3514:	8148                	.insn	2, 0x8148
    3516:	8801                	.insn	2, 0x8801
    3518:	4402                	.insn	2, 0x4402
    351a:	080c                	.insn	2, 0x080c
    351c:	6000                	.insn	2, 0x6000
    351e:	44c1                	.insn	2, 0x44c1
    3520:	0cc8                	.insn	2, 0x0cc8
    3522:	1002                	.insn	2, 0x1002
    3524:	0e44                	.insn	2, 0x0e44
    3526:	0000                	.insn	2, 0x
    3528:	0024                	.insn	2, 0x0024
    352a:	0000                	.insn	2, 0x
    352c:	0508                	.insn	2, 0x0508
    352e:	0000                	.insn	2, 0x
    3530:	e4d8                	.insn	2, 0xe4d8
    3532:	ffff                	.insn	2, 0xffff
    3534:	0038                	.insn	2, 0x0038
    3536:	0000                	.insn	2, 0x
    3538:	4400                	.insn	2, 0x4400
    353a:	100e                	.insn	2, 0x100e
    353c:	8148                	.insn	2, 0x8148
    353e:	8801                	.insn	2, 0x8801
    3540:	4402                	.insn	2, 0x4402
    3542:	080c                	.insn	2, 0x080c
    3544:	5c00                	.insn	2, 0x5c00
    3546:	44c1                	.insn	2, 0x44c1
    3548:	0cc8                	.insn	2, 0x0cc8
    354a:	1002                	.insn	2, 0x1002
    354c:	0e44                	.insn	2, 0x0e44
	...
