
firmware.elf:     file format elf32-littleriscv


Disassembly of section .text:

00000000 <start>:
       0:	1140006f          	jal	zero,114 <do_reset>
       4:	00000013          	addi	zero,zero,0
       8:	00000013          	addi	zero,zero,0
       c:	00000013          	addi	zero,zero,0

00000010 <trap_vector>:
      10:	34011173          	csrrw	sp,mscratch,sp
      14:	00112023          	sw	ra,0(sp)
      18:	00312223          	sw	gp,4(sp)
      1c:	00412423          	sw	tp,8(sp)
      20:	00512623          	sw	t0,12(sp)
      24:	00612823          	sw	t1,16(sp)
      28:	00712a23          	sw	t2,20(sp)
      2c:	00812c23          	sw	s0,24(sp)
      30:	00912e23          	sw	s1,28(sp)
      34:	02a12023          	sw	a0,32(sp)
      38:	02b12223          	sw	a1,36(sp)
      3c:	02c12423          	sw	a2,40(sp)
      40:	02d12623          	sw	a3,44(sp)
      44:	02e12823          	sw	a4,48(sp)
      48:	02f12a23          	sw	a5,52(sp)
      4c:	03012c23          	sw	a6,56(sp)
      50:	03112e23          	sw	a7,60(sp)
      54:	05212023          	sw	s2,64(sp)
      58:	05312223          	sw	s3,68(sp)
      5c:	05412423          	sw	s4,72(sp)
      60:	05512623          	sw	s5,76(sp)
      64:	05612823          	sw	s6,80(sp)
      68:	05712a23          	sw	s7,84(sp)
      6c:	05812c23          	sw	s8,88(sp)
      70:	05912e23          	sw	s9,92(sp)
      74:	07a12023          	sw	s10,96(sp)
      78:	07b12223          	sw	s11,100(sp)
      7c:	07c12423          	sw	t3,104(sp)
      80:	07d12623          	sw	t4,108(sp)
      84:	07e12823          	sw	t5,112(sp)
      88:	07f12a23          	sw	t6,116(sp)
      8c:	34203573          	csrrc	a0,mcause,zero
      90:	729000ef          	jal	ra,fb8 <irq_handler>
      94:	00012083          	lw	ra,0(sp)
      98:	00412183          	lw	gp,4(sp)
      9c:	00812203          	lw	tp,8(sp)
      a0:	00c12283          	lw	t0,12(sp)
      a4:	01012303          	lw	t1,16(sp)
      a8:	01412383          	lw	t2,20(sp)
      ac:	01812403          	lw	s0,24(sp)
      b0:	01c12483          	lw	s1,28(sp)
      b4:	02012503          	lw	a0,32(sp)
      b8:	02412583          	lw	a1,36(sp)
      bc:	02812603          	lw	a2,40(sp)
      c0:	02c12683          	lw	a3,44(sp)
      c4:	03012703          	lw	a4,48(sp)
      c8:	03412783          	lw	a5,52(sp)
      cc:	03812803          	lw	a6,56(sp)
      d0:	03c12883          	lw	a7,60(sp)
      d4:	04012903          	lw	s2,64(sp)
      d8:	04412983          	lw	s3,68(sp)
      dc:	04812a03          	lw	s4,72(sp)
      e0:	04c12a83          	lw	s5,76(sp)
      e4:	05012b03          	lw	s6,80(sp)
      e8:	05412b83          	lw	s7,84(sp)
      ec:	05812c03          	lw	s8,88(sp)
      f0:	05c12c83          	lw	s9,92(sp)
      f4:	06012d03          	lw	s10,96(sp)
      f8:	06412d83          	lw	s11,100(sp)
      fc:	06812e03          	lw	t3,104(sp)
     100:	06c12e83          	lw	t4,108(sp)
     104:	07012f03          	lw	t5,112(sp)
     108:	07412f83          	lw	t6,116(sp)
     10c:	34011173          	csrrw	sp,mscratch,sp
     110:	30200073          	mret

00000114 <do_reset>:
     114:	00000093          	addi	ra,zero,0
     118:	00000113          	addi	sp,zero,0
     11c:	00000193          	addi	gp,zero,0
     120:	00000213          	addi	tp,zero,0
     124:	00000293          	addi	t0,zero,0
     128:	00000313          	addi	t1,zero,0
     12c:	00000393          	addi	t2,zero,0
     130:	00000413          	addi	s0,zero,0
     134:	00000493          	addi	s1,zero,0
     138:	00000513          	addi	a0,zero,0
     13c:	00000593          	addi	a1,zero,0
     140:	00000613          	addi	a2,zero,0
     144:	00000693          	addi	a3,zero,0
     148:	00000713          	addi	a4,zero,0
     14c:	00000793          	addi	a5,zero,0
     150:	00000813          	addi	a6,zero,0
     154:	00000893          	addi	a7,zero,0
     158:	00000913          	addi	s2,zero,0
     15c:	00000993          	addi	s3,zero,0
     160:	00000a13          	addi	s4,zero,0
     164:	00000a93          	addi	s5,zero,0
     168:	00000b13          	addi	s6,zero,0
     16c:	00000b93          	addi	s7,zero,0
     170:	00000c13          	addi	s8,zero,0
     174:	00000c93          	addi	s9,zero,0
     178:	00000d13          	addi	s10,zero,0
     17c:	00000d93          	addi	s11,zero,0
     180:	00000e13          	addi	t3,zero,0
     184:	00000e93          	addi	t4,zero,0
     188:	00000f13          	addi	t5,zero,0
     18c:	00000f93          	addi	t6,zero,0
     190:	deadc1b7          	lui	gp,0xdeadc
     194:	eef18193          	addi	gp,gp,-273 # deadbeef <counter+0xdead8893>
     198:	00018213          	addi	tp,gp,0
     19c:	00001137          	lui	sp,0x1
     1a0:	00010113          	addi	sp,sp,0 # 1000 <main+0x20>
     1a4:	34011073          	csrrw	zero,mscratch,sp
     1a8:	00000117          	auipc	sp,0x0
     1ac:	e6810113          	addi	sp,sp,-408 # 10 <trap_vector>
     1b0:	30511073          	csrrw	zero,mtvec,sp
     1b4:	30045073          	csrrwi	zero,mstatus,8
     1b8:	fff00113          	addi	sp,zero,-1
     1bc:	30411073          	csrrw	zero,mie,sp
     1c0:	00001137          	lui	sp,0x1
     1c4:	fe010113          	addi	sp,sp,-32 # fe0 <main>
     1c8:	619000ef          	jal	ra,fe0 <main>
     1cc:	00100073          	ebreak
     1d0:	611000ef          	jal	ra,fe0 <main>
     1d4:	0540006f          	jal	zero,228 <done>

000001d8 <sw_mult>:
     1d8:	ff410113          	addi	sp,sp,-12
     1dc:	00112023          	sw	ra,0(sp)
     1e0:	00512223          	sw	t0,4(sp)
     1e4:	00612423          	sw	t1,8(sp)
     1e8:	00051463          	bne	a0,zero,1f0 <sw_mult_init>
     1ec:	0280006f          	jal	zero,214 <sw_mult_exit>

000001f0 <sw_mult_init>:
     1f0:	00058333          	add	t1,a1,zero
     1f4:	fff50293          	addi	t0,a0,-1
     1f8:	00029663          	bne	t0,zero,204 <sw_mult_loop>
     1fc:	00058533          	add	a0,a1,zero
     200:	0140006f          	jal	zero,214 <sw_mult_exit>

00000204 <sw_mult_loop>:
     204:	00b30333          	add	t1,t1,a1
     208:	fff28293          	addi	t0,t0,-1
     20c:	fe029ce3          	bne	t0,zero,204 <sw_mult_loop>
     210:	00030533          	add	a0,t1,zero

00000214 <sw_mult_exit>:
     214:	00012083          	lw	ra,0(sp)
     218:	00412283          	lw	t0,4(sp)
     21c:	00812303          	lw	t1,8(sp)
     220:	00c10113          	addi	sp,sp,12
     224:	00008067          	jalr	zero,0(ra)

00000228 <done>:
     228:	0000006f          	jal	zero,228 <done>

0000022c <error>:
     22c:	0000006f          	jal	zero,22c <error>

00000230 <convert>:
     230:	fe010113          	addi	sp,sp,-32
     234:	00112e23          	sw	ra,28(sp)
     238:	00812c23          	sw	s0,24(sp)
     23c:	02010413          	addi	s0,sp,32
     240:	fea42623          	sw	a0,-20(s0)
     244:	fec42783          	lw	a5,-20(s0)
     248:	fe078793          	addi	a5,a5,-32
     24c:	fef42623          	sw	a5,-20(s0)
     250:	00500593          	addi	a1,zero,5
     254:	fec42503          	lw	a0,-20(s0)
     258:	695000ef          	jal	ra,10ec <umult>
     25c:	fea42623          	sw	a0,-20(s0)
     260:	00900593          	addi	a1,zero,9
     264:	fec42503          	lw	a0,-20(s0)
     268:	6f9000ef          	jal	ra,1160 <udiv>
     26c:	fea42623          	sw	a0,-20(s0)
     270:	fec42783          	lw	a5,-20(s0)
     274:	00078513          	addi	a0,a5,0
     278:	01c12083          	lw	ra,28(sp)
     27c:	01812403          	lw	s0,24(sp)
     280:	02010113          	addi	sp,sp,32
     284:	00008067          	jalr	zero,0(ra)

00000288 <initialize_previous_pixel>:
     288:	fe010113          	addi	sp,sp,-32
     28c:	00112e23          	sw	ra,28(sp)
     290:	00812c23          	sw	s0,24(sp)
     294:	02010413          	addi	s0,sp,32
     298:	fea42623          	sw	a0,-20(s0)
     29c:	feb42423          	sw	a1,-24(s0)
     2a0:	fec42223          	sw	a2,-28(s0)
     2a4:	fed42023          	sw	a3,-32(s0)
     2a8:	fec42783          	lw	a5,-20(s0)
     2ac:	0007c703          	lbu	a4,0(a5)
     2b0:	000037b7          	lui	a5,0x3
     2b4:	64e78623          	sb	a4,1612(a5) # 364c <previous_pixel_r>
     2b8:	fe842783          	lw	a5,-24(s0)
     2bc:	0007c703          	lbu	a4,0(a5)
     2c0:	000037b7          	lui	a5,0x3
     2c4:	64e786a3          	sb	a4,1613(a5) # 364d <previous_pixel_g>
     2c8:	fe442783          	lw	a5,-28(s0)
     2cc:	0007c703          	lbu	a4,0(a5)
     2d0:	000037b7          	lui	a5,0x3
     2d4:	64e78723          	sb	a4,1614(a5) # 364e <previous_pixel_b>
     2d8:	fe042783          	lw	a5,-32(s0)
     2dc:	0007c703          	lbu	a4,0(a5)
     2e0:	000037b7          	lui	a5,0x3
     2e4:	64e787a3          	sb	a4,1615(a5) # 364f <previous_pixel_a>
     2e8:	00000013          	addi	zero,zero,0
     2ec:	01c12083          	lw	ra,28(sp)
     2f0:	01812403          	lw	s0,24(sp)
     2f4:	02010113          	addi	sp,sp,32
     2f8:	00008067          	jalr	zero,0(ra)

000002fc <output_chunk8>:
     2fc:	fe010113          	addi	sp,sp,-32
     300:	00112e23          	sw	ra,28(sp)
     304:	00812c23          	sw	s0,24(sp)
     308:	02010413          	addi	s0,sp,32
     30c:	00050793          	addi	a5,a0,0
     310:	fef407a3          	sb	a5,-17(s0)
     314:	fef44703          	lbu	a4,-17(s0)
     318:	000037b7          	lui	a5,0x3
     31c:	6507c783          	lbu	a5,1616(a5) # 3650 <chunk_index>
     320:	00078693          	addi	a3,a5,0
     324:	00300793          	addi	a5,zero,3
     328:	40d787b3          	sub	a5,a5,a3
     32c:	00379793          	slli	a5,a5,0x3
     330:	00f717b3          	sll	a5,a4,a5
     334:	00078713          	addi	a4,a5,0
     338:	000037b7          	lui	a5,0x3
     33c:	6547a783          	lw	a5,1620(a5) # 3654 <chunk_output>
     340:	00f70733          	add	a4,a4,a5
     344:	000037b7          	lui	a5,0x3
     348:	64e7aa23          	sw	a4,1620(a5) # 3654 <chunk_output>
     34c:	000037b7          	lui	a5,0x3
     350:	6507c703          	lbu	a4,1616(a5) # 3650 <chunk_index>
     354:	00300793          	addi	a5,zero,3
     358:	02f71463          	bne	a4,a5,380 <output_chunk8+0x84>
     35c:	800007b7          	lui	a5,0x80000
     360:	00003737          	lui	a4,0x3
     364:	65472703          	lw	a4,1620(a4) # 3654 <chunk_output>
     368:	00e7a023          	sw	a4,0(a5) # 80000000 <counter+0x7fffc9a4>
     36c:	000037b7          	lui	a5,0x3
     370:	64078823          	sb	zero,1616(a5) # 3650 <chunk_index>
     374:	000037b7          	lui	a5,0x3
     378:	6407aa23          	sw	zero,1620(a5) # 3654 <chunk_output>
     37c:	0200006f          	jal	zero,39c <output_chunk8+0xa0>
     380:	000037b7          	lui	a5,0x3
     384:	6507c783          	lbu	a5,1616(a5) # 3650 <chunk_index>
     388:	00178793          	addi	a5,a5,1
     38c:	0ff7f713          	andi	a4,a5,255
     390:	000037b7          	lui	a5,0x3
     394:	64e78823          	sb	a4,1616(a5) # 3650 <chunk_index>
     398:	00000013          	addi	zero,zero,0
     39c:	01c12083          	lw	ra,28(sp)
     3a0:	01812403          	lw	s0,24(sp)
     3a4:	02010113          	addi	sp,sp,32
     3a8:	00008067          	jalr	zero,0(ra)

000003ac <output_chunk32>:
     3ac:	fd010113          	addi	sp,sp,-48
     3b0:	02112623          	sw	ra,44(sp)
     3b4:	02812423          	sw	s0,40(sp)
     3b8:	03010413          	addi	s0,sp,48
     3bc:	fca42e23          	sw	a0,-36(s0)
     3c0:	fdc42783          	lw	a5,-36(s0)
     3c4:	0187d793          	srli	a5,a5,0x18
     3c8:	fef407a3          	sb	a5,-17(s0)
     3cc:	fef44783          	lbu	a5,-17(s0)
     3d0:	00078513          	addi	a0,a5,0
     3d4:	f29ff0ef          	jal	ra,2fc <output_chunk8>
     3d8:	fdc42783          	lw	a5,-36(s0)
     3dc:	0107d793          	srli	a5,a5,0x10
     3e0:	fef407a3          	sb	a5,-17(s0)
     3e4:	fef44783          	lbu	a5,-17(s0)
     3e8:	00078513          	addi	a0,a5,0
     3ec:	f11ff0ef          	jal	ra,2fc <output_chunk8>
     3f0:	fdc42783          	lw	a5,-36(s0)
     3f4:	0087d793          	srli	a5,a5,0x8
     3f8:	fef407a3          	sb	a5,-17(s0)
     3fc:	fef44783          	lbu	a5,-17(s0)
     400:	00078513          	addi	a0,a5,0
     404:	ef9ff0ef          	jal	ra,2fc <output_chunk8>
     408:	fdc42783          	lw	a5,-36(s0)
     40c:	fef407a3          	sb	a5,-17(s0)
     410:	fef44783          	lbu	a5,-17(s0)
     414:	00078513          	addi	a0,a5,0
     418:	ee5ff0ef          	jal	ra,2fc <output_chunk8>
     41c:	00000013          	addi	zero,zero,0
     420:	02c12083          	lw	ra,44(sp)
     424:	02812403          	lw	s0,40(sp)
     428:	03010113          	addi	sp,sp,48
     42c:	00008067          	jalr	zero,0(ra)

00000430 <reverse_endian>:
     430:	fd010113          	addi	sp,sp,-48
     434:	02112623          	sw	ra,44(sp)
     438:	02812423          	sw	s0,40(sp)
     43c:	03010413          	addi	s0,sp,48
     440:	fca42e23          	sw	a0,-36(s0)
     444:	fe042623          	sw	zero,-20(s0)
     448:	fdc42783          	lw	a5,-36(s0)
     44c:	01879793          	slli	a5,a5,0x18
     450:	fec42703          	lw	a4,-20(s0)
     454:	00f707b3          	add	a5,a4,a5
     458:	fef42623          	sw	a5,-20(s0)
     45c:	fdc42783          	lw	a5,-36(s0)
     460:	00879713          	slli	a4,a5,0x8
     464:	00ff07b7          	lui	a5,0xff0
     468:	00f777b3          	and	a5,a4,a5
     46c:	fec42703          	lw	a4,-20(s0)
     470:	00f707b3          	add	a5,a4,a5
     474:	fef42623          	sw	a5,-20(s0)
     478:	fdc42783          	lw	a5,-36(s0)
     47c:	0087d713          	srli	a4,a5,0x8
     480:	000107b7          	lui	a5,0x10
     484:	f0078793          	addi	a5,a5,-256 # ff00 <counter+0xc8a4>
     488:	00f777b3          	and	a5,a4,a5
     48c:	fec42703          	lw	a4,-20(s0)
     490:	00f707b3          	add	a5,a4,a5
     494:	fef42623          	sw	a5,-20(s0)
     498:	fdc42783          	lw	a5,-36(s0)
     49c:	0187d793          	srli	a5,a5,0x18
     4a0:	fec42703          	lw	a4,-20(s0)
     4a4:	00f707b3          	add	a5,a4,a5
     4a8:	fef42623          	sw	a5,-20(s0)
     4ac:	fec42783          	lw	a5,-20(s0)
     4b0:	00078513          	addi	a0,a5,0
     4b4:	02c12083          	lw	ra,44(sp)
     4b8:	02812403          	lw	s0,40(sp)
     4bc:	03010113          	addi	sp,sp,48
     4c0:	00008067          	jalr	zero,0(ra)

000004c4 <output_header>:
     4c4:	fe010113          	addi	sp,sp,-32
     4c8:	00112e23          	sw	ra,28(sp)
     4cc:	00812c23          	sw	s0,24(sp)
     4d0:	02010413          	addi	s0,sp,32
     4d4:	fea42623          	sw	a0,-20(s0)
     4d8:	feb42423          	sw	a1,-24(s0)
     4dc:	00060793          	addi	a5,a2,0
     4e0:	00068713          	addi	a4,a3,0
     4e4:	fef403a3          	sb	a5,-25(s0)
     4e8:	00070793          	addi	a5,a4,0
     4ec:	fef40323          	sb	a5,-26(s0)
     4f0:	07100513          	addi	a0,zero,113
     4f4:	e09ff0ef          	jal	ra,2fc <output_chunk8>
     4f8:	06f00513          	addi	a0,zero,111
     4fc:	e01ff0ef          	jal	ra,2fc <output_chunk8>
     500:	06900513          	addi	a0,zero,105
     504:	df9ff0ef          	jal	ra,2fc <output_chunk8>
     508:	06600513          	addi	a0,zero,102
     50c:	df1ff0ef          	jal	ra,2fc <output_chunk8>
     510:	fec42503          	lw	a0,-20(s0)
     514:	e99ff0ef          	jal	ra,3ac <output_chunk32>
     518:	fe842503          	lw	a0,-24(s0)
     51c:	e91ff0ef          	jal	ra,3ac <output_chunk32>
     520:	fe744783          	lbu	a5,-25(s0)
     524:	00078513          	addi	a0,a5,0
     528:	dd5ff0ef          	jal	ra,2fc <output_chunk8>
     52c:	fe644783          	lbu	a5,-26(s0)
     530:	00078513          	addi	a0,a5,0
     534:	dc9ff0ef          	jal	ra,2fc <output_chunk8>
     538:	00000013          	addi	zero,zero,0
     53c:	01c12083          	lw	ra,28(sp)
     540:	01812403          	lw	s0,24(sp)
     544:	02010113          	addi	sp,sp,32
     548:	00008067          	jalr	zero,0(ra)

0000054c <compare_pixels>:
     54c:	fd010113          	addi	sp,sp,-48
     550:	02112623          	sw	ra,44(sp)
     554:	02812423          	sw	s0,40(sp)
     558:	03010413          	addi	s0,sp,48
     55c:	fea42623          	sw	a0,-20(s0)
     560:	feb42423          	sw	a1,-24(s0)
     564:	fec42223          	sw	a2,-28(s0)
     568:	fed42023          	sw	a3,-32(s0)
     56c:	fce42e23          	sw	a4,-36(s0)
     570:	fcf42c23          	sw	a5,-40(s0)
     574:	fd042a23          	sw	a6,-44(s0)
     578:	fd142823          	sw	a7,-48(s0)
     57c:	fec42783          	lw	a5,-20(s0)
     580:	0007c703          	lbu	a4,0(a5)
     584:	fdc42783          	lw	a5,-36(s0)
     588:	0007c783          	lbu	a5,0(a5)
     58c:	00f70663          	beq	a4,a5,598 <compare_pixels+0x4c>
     590:	00000793          	addi	a5,zero,0
     594:	05c0006f          	jal	zero,5f0 <compare_pixels+0xa4>
     598:	fe842783          	lw	a5,-24(s0)
     59c:	0007c703          	lbu	a4,0(a5)
     5a0:	fd842783          	lw	a5,-40(s0)
     5a4:	0007c783          	lbu	a5,0(a5)
     5a8:	00f70663          	beq	a4,a5,5b4 <compare_pixels+0x68>
     5ac:	00000793          	addi	a5,zero,0
     5b0:	0400006f          	jal	zero,5f0 <compare_pixels+0xa4>
     5b4:	fe442783          	lw	a5,-28(s0)
     5b8:	0007c703          	lbu	a4,0(a5)
     5bc:	fd442783          	lw	a5,-44(s0)
     5c0:	0007c783          	lbu	a5,0(a5)
     5c4:	00f70663          	beq	a4,a5,5d0 <compare_pixels+0x84>
     5c8:	00000793          	addi	a5,zero,0
     5cc:	0240006f          	jal	zero,5f0 <compare_pixels+0xa4>
     5d0:	fe042783          	lw	a5,-32(s0)
     5d4:	0007c703          	lbu	a4,0(a5)
     5d8:	fd042783          	lw	a5,-48(s0)
     5dc:	0007c783          	lbu	a5,0(a5)
     5e0:	00f70663          	beq	a4,a5,5ec <compare_pixels+0xa0>
     5e4:	00000793          	addi	a5,zero,0
     5e8:	0080006f          	jal	zero,5f0 <compare_pixels+0xa4>
     5ec:	00100793          	addi	a5,zero,1
     5f0:	00078513          	addi	a0,a5,0
     5f4:	02c12083          	lw	ra,44(sp)
     5f8:	02812403          	lw	s0,40(sp)
     5fc:	03010113          	addi	sp,sp,48
     600:	00008067          	jalr	zero,0(ra)

00000604 <run_chunk>:
     604:	fd010113          	addi	sp,sp,-48
     608:	02112623          	sw	ra,44(sp)
     60c:	02812423          	sw	s0,40(sp)
     610:	03010413          	addi	s0,sp,48
     614:	fca42e23          	sw	a0,-36(s0)
     618:	fcb42c23          	sw	a1,-40(s0)
     61c:	fcc42a23          	sw	a2,-44(s0)
     620:	fcd42823          	sw	a3,-48(s0)
     624:	deadc7b7          	lui	a5,0xdeadc
     628:	eef78513          	addi	a0,a5,-273 # deadbeef <counter+0xdead8893>
     62c:	d81ff0ef          	jal	ra,3ac <output_chunk32>
     630:	fdc42783          	lw	a5,-36(s0)
     634:	0007c783          	lbu	a5,0(a5)
     638:	00078513          	addi	a0,a5,0
     63c:	cc1ff0ef          	jal	ra,2fc <output_chunk8>
     640:	fd842783          	lw	a5,-40(s0)
     644:	0007c783          	lbu	a5,0(a5)
     648:	00078513          	addi	a0,a5,0
     64c:	cb1ff0ef          	jal	ra,2fc <output_chunk8>
     650:	fd442783          	lw	a5,-44(s0)
     654:	0007c783          	lbu	a5,0(a5)
     658:	00078513          	addi	a0,a5,0
     65c:	ca1ff0ef          	jal	ra,2fc <output_chunk8>
     660:	000037b7          	lui	a5,0x3
     664:	64f78893          	addi	a7,a5,1615 # 364f <previous_pixel_a>
     668:	000037b7          	lui	a5,0x3
     66c:	64e78813          	addi	a6,a5,1614 # 364e <previous_pixel_b>
     670:	000037b7          	lui	a5,0x3
     674:	64d78793          	addi	a5,a5,1613 # 364d <previous_pixel_g>
     678:	00003737          	lui	a4,0x3
     67c:	64c70713          	addi	a4,a4,1612 # 364c <previous_pixel_r>
     680:	fd042683          	lw	a3,-48(s0)
     684:	fd442603          	lw	a2,-44(s0)
     688:	fd842583          	lw	a1,-40(s0)
     68c:	fdc42503          	lw	a0,-36(s0)
     690:	ebdff0ef          	jal	ra,54c <compare_pixels>
     694:	00050793          	addi	a5,a0,0
     698:	06078a63          	beq	a5,zero,70c <run_chunk+0x108>
     69c:	000037b7          	lui	a5,0x3
     6a0:	6587c703          	lbu	a4,1624(a5) # 3658 <RLE>
     6a4:	03f00793          	addi	a5,zero,63
     6a8:	06e7e263          	bltu	a5,a4,70c <run_chunk+0x108>
     6ac:	000037b7          	lui	a5,0x3
     6b0:	6587c783          	lbu	a5,1624(a5) # 3658 <RLE>
     6b4:	00178793          	addi	a5,a5,1
     6b8:	0ff7f713          	andi	a4,a5,255
     6bc:	000037b7          	lui	a5,0x3
     6c0:	64e78c23          	sb	a4,1624(a5) # 3658 <RLE>
     6c4:	fdc42783          	lw	a5,-36(s0)
     6c8:	0007c703          	lbu	a4,0(a5)
     6cc:	000037b7          	lui	a5,0x3
     6d0:	64e78623          	sb	a4,1612(a5) # 364c <previous_pixel_r>
     6d4:	fd842783          	lw	a5,-40(s0)
     6d8:	0007c703          	lbu	a4,0(a5)
     6dc:	000037b7          	lui	a5,0x3
     6e0:	64e786a3          	sb	a4,1613(a5) # 364d <previous_pixel_g>
     6e4:	fd442783          	lw	a5,-44(s0)
     6e8:	0007c703          	lbu	a4,0(a5)
     6ec:	000037b7          	lui	a5,0x3
     6f0:	64e78723          	sb	a4,1614(a5) # 364e <previous_pixel_b>
     6f4:	fd042783          	lw	a5,-48(s0)
     6f8:	0007c703          	lbu	a4,0(a5)
     6fc:	000037b7          	lui	a5,0x3
     700:	64e787a3          	sb	a4,1615(a5) # 364f <previous_pixel_a>
     704:	00100793          	addi	a5,zero,1
     708:	04c0006f          	jal	zero,754 <run_chunk+0x150>
     70c:	000037b7          	lui	a5,0x3
     710:	6587c783          	lbu	a5,1624(a5) # 3658 <RLE>
     714:	02078e63          	beq	a5,zero,750 <run_chunk+0x14c>
     718:	fc000793          	addi	a5,zero,-64
     71c:	fef407a3          	sb	a5,-17(s0)
     720:	000037b7          	lui	a5,0x3
     724:	6587c783          	lbu	a5,1624(a5) # 3658 <RLE>
     728:	fef44703          	lbu	a4,-17(s0)
     72c:	00e787b3          	add	a5,a5,a4
     730:	0ff7f793          	andi	a5,a5,255
     734:	fff78793          	addi	a5,a5,-1
     738:	fef40723          	sb	a5,-18(s0)
     73c:	fee44783          	lbu	a5,-18(s0)
     740:	00078513          	addi	a0,a5,0
     744:	bb9ff0ef          	jal	ra,2fc <output_chunk8>
     748:	000037b7          	lui	a5,0x3
     74c:	64078c23          	sb	zero,1624(a5) # 3658 <RLE>
     750:	00000793          	addi	a5,zero,0
     754:	00078513          	addi	a0,a5,0
     758:	02c12083          	lw	ra,44(sp)
     75c:	02812403          	lw	s0,40(sp)
     760:	03010113          	addi	sp,sp,48
     764:	00008067          	jalr	zero,0(ra)

00000768 <get_hash>:
     768:	fe010113          	addi	sp,sp,-32
     76c:	00112e23          	sw	ra,28(sp)
     770:	00812c23          	sw	s0,24(sp)
     774:	00912a23          	sw	s1,20(sp)
     778:	02010413          	addi	s0,sp,32
     77c:	fea42623          	sw	a0,-20(s0)
     780:	feb42423          	sw	a1,-24(s0)
     784:	fec42223          	sw	a2,-28(s0)
     788:	fed42023          	sw	a3,-32(s0)
     78c:	fec42783          	lw	a5,-20(s0)
     790:	0007c783          	lbu	a5,0(a5)
     794:	00078593          	addi	a1,a5,0
     798:	00300513          	addi	a0,zero,3
     79c:	a3dff0ef          	jal	ra,1d8 <sw_mult>
     7a0:	00050793          	addi	a5,a0,0
     7a4:	0ff7f493          	andi	s1,a5,255
     7a8:	fe842783          	lw	a5,-24(s0)
     7ac:	0007c783          	lbu	a5,0(a5)
     7b0:	00078593          	addi	a1,a5,0
     7b4:	00500513          	addi	a0,zero,5
     7b8:	a21ff0ef          	jal	ra,1d8 <sw_mult>
     7bc:	00050793          	addi	a5,a0,0
     7c0:	0ff7f793          	andi	a5,a5,255
     7c4:	00f487b3          	add	a5,s1,a5
     7c8:	0ff7f493          	andi	s1,a5,255
     7cc:	fe442783          	lw	a5,-28(s0)
     7d0:	0007c783          	lbu	a5,0(a5)
     7d4:	00078593          	addi	a1,a5,0
     7d8:	00700513          	addi	a0,zero,7
     7dc:	9fdff0ef          	jal	ra,1d8 <sw_mult>
     7e0:	00050793          	addi	a5,a0,0
     7e4:	0ff7f793          	andi	a5,a5,255
     7e8:	00f487b3          	add	a5,s1,a5
     7ec:	0ff7f493          	andi	s1,a5,255
     7f0:	fe042783          	lw	a5,-32(s0)
     7f4:	0007c783          	lbu	a5,0(a5)
     7f8:	00078593          	addi	a1,a5,0
     7fc:	00b00513          	addi	a0,zero,11
     800:	9d9ff0ef          	jal	ra,1d8 <sw_mult>
     804:	00050793          	addi	a5,a0,0
     808:	0ff7f793          	andi	a5,a5,255
     80c:	00f487b3          	add	a5,s1,a5
     810:	0ff7f793          	andi	a5,a5,255
     814:	03f7f793          	andi	a5,a5,63
     818:	0ff7f793          	andi	a5,a5,255
     81c:	00078513          	addi	a0,a5,0
     820:	01c12083          	lw	ra,28(sp)
     824:	01812403          	lw	s0,24(sp)
     828:	01412483          	lw	s1,20(sp)
     82c:	02010113          	addi	sp,sp,32
     830:	00008067          	jalr	zero,0(ra)

00000834 <index_chunk>:
     834:	fd010113          	addi	sp,sp,-48
     838:	02112623          	sw	ra,44(sp)
     83c:	02812423          	sw	s0,40(sp)
     840:	03010413          	addi	s0,sp,48
     844:	fca42e23          	sw	a0,-36(s0)
     848:	fcb42c23          	sw	a1,-40(s0)
     84c:	fcc42a23          	sw	a2,-44(s0)
     850:	fcd42823          	sw	a3,-48(s0)
     854:	fd042683          	lw	a3,-48(s0)
     858:	fd442603          	lw	a2,-44(s0)
     85c:	fd842583          	lw	a1,-40(s0)
     860:	fdc42503          	lw	a0,-36(s0)
     864:	f05ff0ef          	jal	ra,768 <get_hash>
     868:	00050793          	addi	a5,a0,0
     86c:	fef42623          	sw	a5,-20(s0)
     870:	fec42783          	lw	a5,-20(s0)
     874:	00279713          	slli	a4,a5,0x2
     878:	000037b7          	lui	a5,0x3
     87c:	54c78793          	addi	a5,a5,1356 # 354c <RA>
     880:	00f70533          	add	a0,a4,a5
     884:	fec42783          	lw	a5,-20(s0)
     888:	00279793          	slli	a5,a5,0x2
     88c:	00178713          	addi	a4,a5,1
     890:	000037b7          	lui	a5,0x3
     894:	54c78793          	addi	a5,a5,1356 # 354c <RA>
     898:	00f705b3          	add	a1,a4,a5
     89c:	fec42783          	lw	a5,-20(s0)
     8a0:	00279793          	slli	a5,a5,0x2
     8a4:	00278713          	addi	a4,a5,2
     8a8:	000037b7          	lui	a5,0x3
     8ac:	54c78793          	addi	a5,a5,1356 # 354c <RA>
     8b0:	00f70633          	add	a2,a4,a5
     8b4:	fec42783          	lw	a5,-20(s0)
     8b8:	00279793          	slli	a5,a5,0x2
     8bc:	00378713          	addi	a4,a5,3
     8c0:	000037b7          	lui	a5,0x3
     8c4:	54c78793          	addi	a5,a5,1356 # 354c <RA>
     8c8:	00f706b3          	add	a3,a4,a5
     8cc:	fd042883          	lw	a7,-48(s0)
     8d0:	fd442803          	lw	a6,-44(s0)
     8d4:	fd842783          	lw	a5,-40(s0)
     8d8:	fdc42703          	lw	a4,-36(s0)
     8dc:	c71ff0ef          	jal	ra,54c <compare_pixels>
     8e0:	00050793          	addi	a5,a0,0
     8e4:	06078463          	beq	a5,zero,94c <index_chunk+0x118>
     8e8:	fec42783          	lw	a5,-20(s0)
     8ec:	0ff7f793          	andi	a5,a5,255
     8f0:	03f7f793          	andi	a5,a5,63
     8f4:	fef405a3          	sb	a5,-21(s0)
     8f8:	feb44783          	lbu	a5,-21(s0)
     8fc:	00078513          	addi	a0,a5,0
     900:	9fdff0ef          	jal	ra,2fc <output_chunk8>
     904:	fdc42783          	lw	a5,-36(s0)
     908:	0007c703          	lbu	a4,0(a5)
     90c:	000037b7          	lui	a5,0x3
     910:	64e78623          	sb	a4,1612(a5) # 364c <previous_pixel_r>
     914:	fd842783          	lw	a5,-40(s0)
     918:	0007c703          	lbu	a4,0(a5)
     91c:	000037b7          	lui	a5,0x3
     920:	64e786a3          	sb	a4,1613(a5) # 364d <previous_pixel_g>
     924:	fd442783          	lw	a5,-44(s0)
     928:	0007c703          	lbu	a4,0(a5)
     92c:	000037b7          	lui	a5,0x3
     930:	64e78723          	sb	a4,1614(a5) # 364e <previous_pixel_b>
     934:	fd042783          	lw	a5,-48(s0)
     938:	0007c703          	lbu	a4,0(a5)
     93c:	000037b7          	lui	a5,0x3
     940:	64e787a3          	sb	a4,1615(a5) # 364f <previous_pixel_a>
     944:	00100793          	addi	a5,zero,1
     948:	0880006f          	jal	zero,9d0 <index_chunk+0x19c>
     94c:	fdc42783          	lw	a5,-36(s0)
     950:	0007c703          	lbu	a4,0(a5)
     954:	000037b7          	lui	a5,0x3
     958:	54c78693          	addi	a3,a5,1356 # 354c <RA>
     95c:	fec42783          	lw	a5,-20(s0)
     960:	00279793          	slli	a5,a5,0x2
     964:	00f687b3          	add	a5,a3,a5
     968:	00e78023          	sb	a4,0(a5)
     96c:	fd842783          	lw	a5,-40(s0)
     970:	0007c703          	lbu	a4,0(a5)
     974:	000037b7          	lui	a5,0x3
     978:	54c78693          	addi	a3,a5,1356 # 354c <RA>
     97c:	fec42783          	lw	a5,-20(s0)
     980:	00279793          	slli	a5,a5,0x2
     984:	00f687b3          	add	a5,a3,a5
     988:	00e780a3          	sb	a4,1(a5)
     98c:	fd442783          	lw	a5,-44(s0)
     990:	0007c703          	lbu	a4,0(a5)
     994:	000037b7          	lui	a5,0x3
     998:	54c78693          	addi	a3,a5,1356 # 354c <RA>
     99c:	fec42783          	lw	a5,-20(s0)
     9a0:	00279793          	slli	a5,a5,0x2
     9a4:	00f687b3          	add	a5,a3,a5
     9a8:	00e78123          	sb	a4,2(a5)
     9ac:	fd042783          	lw	a5,-48(s0)
     9b0:	0007c703          	lbu	a4,0(a5)
     9b4:	000037b7          	lui	a5,0x3
     9b8:	54c78693          	addi	a3,a5,1356 # 354c <RA>
     9bc:	fec42783          	lw	a5,-20(s0)
     9c0:	00279793          	slli	a5,a5,0x2
     9c4:	00f687b3          	add	a5,a3,a5
     9c8:	00e781a3          	sb	a4,3(a5)
     9cc:	00000793          	addi	a5,zero,0
     9d0:	00078513          	addi	a0,a5,0
     9d4:	02c12083          	lw	ra,44(sp)
     9d8:	02812403          	lw	s0,40(sp)
     9dc:	03010113          	addi	sp,sp,48
     9e0:	00008067          	jalr	zero,0(ra)

000009e4 <diff_chunk>:
     9e4:	fd010113          	addi	sp,sp,-48
     9e8:	02112623          	sw	ra,44(sp)
     9ec:	02812423          	sw	s0,40(sp)
     9f0:	03010413          	addi	s0,sp,48
     9f4:	fca42e23          	sw	a0,-36(s0)
     9f8:	fcb42c23          	sw	a1,-40(s0)
     9fc:	fcc42a23          	sw	a2,-44(s0)
     a00:	fcd42823          	sw	a3,-48(s0)
     a04:	fdc42783          	lw	a5,-36(s0)
     a08:	0007c703          	lbu	a4,0(a5)
     a0c:	000037b7          	lui	a5,0x3
     a10:	64c7c783          	lbu	a5,1612(a5) # 364c <previous_pixel_r>
     a14:	40f707b3          	sub	a5,a4,a5
     a18:	0ff7f793          	andi	a5,a5,255
     a1c:	00278793          	addi	a5,a5,2
     a20:	fef407a3          	sb	a5,-17(s0)
     a24:	fd842783          	lw	a5,-40(s0)
     a28:	0007c703          	lbu	a4,0(a5)
     a2c:	000037b7          	lui	a5,0x3
     a30:	64d7c783          	lbu	a5,1613(a5) # 364d <previous_pixel_g>
     a34:	40f707b3          	sub	a5,a4,a5
     a38:	0ff7f793          	andi	a5,a5,255
     a3c:	00278793          	addi	a5,a5,2
     a40:	fef40723          	sb	a5,-18(s0)
     a44:	fd442783          	lw	a5,-44(s0)
     a48:	0007c703          	lbu	a4,0(a5)
     a4c:	000037b7          	lui	a5,0x3
     a50:	64e7c783          	lbu	a5,1614(a5) # 364e <previous_pixel_b>
     a54:	40f707b3          	sub	a5,a4,a5
     a58:	0ff7f793          	andi	a5,a5,255
     a5c:	00278793          	addi	a5,a5,2
     a60:	fef406a3          	sb	a5,-19(s0)
     a64:	fef44703          	lbu	a4,-17(s0)
     a68:	00300793          	addi	a5,zero,3
     a6c:	00e7f663          	bgeu	a5,a4,a78 <diff_chunk+0x94>
     a70:	00000793          	addi	a5,zero,0
     a74:	0e40006f          	jal	zero,b58 <diff_chunk+0x174>
     a78:	fee44703          	lbu	a4,-18(s0)
     a7c:	00300793          	addi	a5,zero,3
     a80:	00e7f663          	bgeu	a5,a4,a8c <diff_chunk+0xa8>
     a84:	00000793          	addi	a5,zero,0
     a88:	0d00006f          	jal	zero,b58 <diff_chunk+0x174>
     a8c:	fed44703          	lbu	a4,-19(s0)
     a90:	00300793          	addi	a5,zero,3
     a94:	00e7f663          	bgeu	a5,a4,aa0 <diff_chunk+0xbc>
     a98:	00000793          	addi	a5,zero,0
     a9c:	0bc0006f          	jal	zero,b58 <diff_chunk+0x174>
     aa0:	fef44783          	lbu	a5,-17(s0)
     aa4:	00479793          	slli	a5,a5,0x4
     aa8:	0ff7f793          	andi	a5,a5,255
     aac:	0307f793          	andi	a5,a5,48
     ab0:	fef407a3          	sb	a5,-17(s0)
     ab4:	fee44783          	lbu	a5,-18(s0)
     ab8:	00279793          	slli	a5,a5,0x2
     abc:	0ff7f793          	andi	a5,a5,255
     ac0:	00c7f793          	andi	a5,a5,12
     ac4:	fef40723          	sb	a5,-18(s0)
     ac8:	fed44783          	lbu	a5,-19(s0)
     acc:	0037f793          	andi	a5,a5,3
     ad0:	fef406a3          	sb	a5,-19(s0)
     ad4:	04000793          	addi	a5,zero,64
     ad8:	fef40623          	sb	a5,-20(s0)
     adc:	fef44783          	lbu	a5,-17(s0)
     ae0:	00078713          	addi	a4,a5,0
     ae4:	fee44783          	lbu	a5,-18(s0)
     ae8:	00f707b3          	add	a5,a4,a5
     aec:	0ff7f793          	andi	a5,a5,255
     af0:	fed44703          	lbu	a4,-19(s0)
     af4:	00e787b3          	add	a5,a5,a4
     af8:	0ff7f793          	andi	a5,a5,255
     afc:	fec44703          	lbu	a4,-20(s0)
     b00:	00e787b3          	add	a5,a5,a4
     b04:	fef405a3          	sb	a5,-21(s0)
     b08:	feb44783          	lbu	a5,-21(s0)
     b0c:	00078513          	addi	a0,a5,0
     b10:	fecff0ef          	jal	ra,2fc <output_chunk8>
     b14:	fdc42783          	lw	a5,-36(s0)
     b18:	0007c703          	lbu	a4,0(a5)
     b1c:	000037b7          	lui	a5,0x3
     b20:	64e78623          	sb	a4,1612(a5) # 364c <previous_pixel_r>
     b24:	fd842783          	lw	a5,-40(s0)
     b28:	0007c703          	lbu	a4,0(a5)
     b2c:	000037b7          	lui	a5,0x3
     b30:	64e786a3          	sb	a4,1613(a5) # 364d <previous_pixel_g>
     b34:	fd442783          	lw	a5,-44(s0)
     b38:	0007c703          	lbu	a4,0(a5)
     b3c:	000037b7          	lui	a5,0x3
     b40:	64e78723          	sb	a4,1614(a5) # 364e <previous_pixel_b>
     b44:	fd042783          	lw	a5,-48(s0)
     b48:	0007c703          	lbu	a4,0(a5)
     b4c:	000037b7          	lui	a5,0x3
     b50:	64e787a3          	sb	a4,1615(a5) # 364f <previous_pixel_a>
     b54:	00100793          	addi	a5,zero,1
     b58:	00078513          	addi	a0,a5,0
     b5c:	02c12083          	lw	ra,44(sp)
     b60:	02812403          	lw	s0,40(sp)
     b64:	03010113          	addi	sp,sp,48
     b68:	00008067          	jalr	zero,0(ra)

00000b6c <luma_chunk>:
     b6c:	fd010113          	addi	sp,sp,-48
     b70:	02112623          	sw	ra,44(sp)
     b74:	02812423          	sw	s0,40(sp)
     b78:	03010413          	addi	s0,sp,48
     b7c:	fca42e23          	sw	a0,-36(s0)
     b80:	fcb42c23          	sw	a1,-40(s0)
     b84:	fcc42a23          	sw	a2,-44(s0)
     b88:	fcd42823          	sw	a3,-48(s0)
     b8c:	fd842783          	lw	a5,-40(s0)
     b90:	0007c703          	lbu	a4,0(a5)
     b94:	000037b7          	lui	a5,0x3
     b98:	64d7c783          	lbu	a5,1613(a5) # 364d <previous_pixel_g>
     b9c:	40f707b3          	sub	a5,a4,a5
     ba0:	0ff7f793          	andi	a5,a5,255
     ba4:	02078793          	addi	a5,a5,32
     ba8:	fef407a3          	sb	a5,-17(s0)
     bac:	fef44703          	lbu	a4,-17(s0)
     bb0:	03f00793          	addi	a5,zero,63
     bb4:	00e7f663          	bgeu	a5,a4,bc0 <luma_chunk+0x54>
     bb8:	00000793          	addi	a5,zero,0
     bbc:	1200006f          	jal	zero,cdc <luma_chunk+0x170>
     bc0:	fdc42783          	lw	a5,-36(s0)
     bc4:	0007c703          	lbu	a4,0(a5)
     bc8:	000037b7          	lui	a5,0x3
     bcc:	64c7c783          	lbu	a5,1612(a5) # 364c <previous_pixel_r>
     bd0:	40f707b3          	sub	a5,a4,a5
     bd4:	0ff7f793          	andi	a5,a5,255
     bd8:	fef44703          	lbu	a4,-17(s0)
     bdc:	40e787b3          	sub	a5,a5,a4
     be0:	0ff7f793          	andi	a5,a5,255
     be4:	fe878793          	addi	a5,a5,-24
     be8:	fef40723          	sb	a5,-18(s0)
     bec:	fee44703          	lbu	a4,-18(s0)
     bf0:	00f00793          	addi	a5,zero,15
     bf4:	00e7f663          	bgeu	a5,a4,c00 <luma_chunk+0x94>
     bf8:	00000793          	addi	a5,zero,0
     bfc:	0e00006f          	jal	zero,cdc <luma_chunk+0x170>
     c00:	fd442783          	lw	a5,-44(s0)
     c04:	0007c703          	lbu	a4,0(a5)
     c08:	000037b7          	lui	a5,0x3
     c0c:	64e7c783          	lbu	a5,1614(a5) # 364e <previous_pixel_b>
     c10:	40f707b3          	sub	a5,a4,a5
     c14:	0ff7f793          	andi	a5,a5,255
     c18:	fef44703          	lbu	a4,-17(s0)
     c1c:	40e787b3          	sub	a5,a5,a4
     c20:	0ff7f793          	andi	a5,a5,255
     c24:	fe878793          	addi	a5,a5,-24
     c28:	fef406a3          	sb	a5,-19(s0)
     c2c:	fed44703          	lbu	a4,-19(s0)
     c30:	00f00793          	addi	a5,zero,15
     c34:	00e7f663          	bgeu	a5,a4,c40 <luma_chunk+0xd4>
     c38:	00000793          	addi	a5,zero,0
     c3c:	0a00006f          	jal	zero,cdc <luma_chunk+0x170>
     c40:	f8000793          	addi	a5,zero,-128
     c44:	fef40623          	sb	a5,-20(s0)
     c48:	fef44783          	lbu	a5,-17(s0)
     c4c:	03f7f793          	andi	a5,a5,63
     c50:	0ff7f793          	andi	a5,a5,255
     c54:	fec44703          	lbu	a4,-20(s0)
     c58:	00e787b3          	add	a5,a5,a4
     c5c:	fef40623          	sb	a5,-20(s0)
     c60:	fec44783          	lbu	a5,-20(s0)
     c64:	00078513          	addi	a0,a5,0
     c68:	e94ff0ef          	jal	ra,2fc <output_chunk8>
     c6c:	fee44783          	lbu	a5,-18(s0)
     c70:	00479793          	slli	a5,a5,0x4
     c74:	0ff7f713          	andi	a4,a5,255
     c78:	fed44783          	lbu	a5,-19(s0)
     c7c:	00f7f793          	andi	a5,a5,15
     c80:	0ff7f793          	andi	a5,a5,255
     c84:	00f707b3          	add	a5,a4,a5
     c88:	fef40623          	sb	a5,-20(s0)
     c8c:	fec44783          	lbu	a5,-20(s0)
     c90:	00078513          	addi	a0,a5,0
     c94:	e68ff0ef          	jal	ra,2fc <output_chunk8>
     c98:	fdc42783          	lw	a5,-36(s0)
     c9c:	0007c703          	lbu	a4,0(a5)
     ca0:	000037b7          	lui	a5,0x3
     ca4:	64e78623          	sb	a4,1612(a5) # 364c <previous_pixel_r>
     ca8:	fd842783          	lw	a5,-40(s0)
     cac:	0007c703          	lbu	a4,0(a5)
     cb0:	000037b7          	lui	a5,0x3
     cb4:	64e786a3          	sb	a4,1613(a5) # 364d <previous_pixel_g>
     cb8:	fd442783          	lw	a5,-44(s0)
     cbc:	0007c703          	lbu	a4,0(a5)
     cc0:	000037b7          	lui	a5,0x3
     cc4:	64e78723          	sb	a4,1614(a5) # 364e <previous_pixel_b>
     cc8:	fd042783          	lw	a5,-48(s0)
     ccc:	0007c703          	lbu	a4,0(a5)
     cd0:	000037b7          	lui	a5,0x3
     cd4:	64e787a3          	sb	a4,1615(a5) # 364f <previous_pixel_a>
     cd8:	00100793          	addi	a5,zero,1
     cdc:	00078513          	addi	a0,a5,0
     ce0:	02c12083          	lw	ra,44(sp)
     ce4:	02812403          	lw	s0,40(sp)
     ce8:	03010113          	addi	sp,sp,48
     cec:	00008067          	jalr	zero,0(ra)

00000cf0 <rgb_chunk>:
     cf0:	fd010113          	addi	sp,sp,-48
     cf4:	02112623          	sw	ra,44(sp)
     cf8:	02812423          	sw	s0,40(sp)
     cfc:	03010413          	addi	s0,sp,48
     d00:	fca42e23          	sw	a0,-36(s0)
     d04:	fcb42c23          	sw	a1,-40(s0)
     d08:	fcc42a23          	sw	a2,-44(s0)
     d0c:	fcd42823          	sw	a3,-48(s0)
     d10:	fd042783          	lw	a5,-48(s0)
     d14:	0007c703          	lbu	a4,0(a5)
     d18:	000037b7          	lui	a5,0x3
     d1c:	64f7c783          	lbu	a5,1615(a5) # 364f <previous_pixel_a>
     d20:	08f71863          	bne	a4,a5,db0 <rgb_chunk+0xc0>
     d24:	fe0007b7          	lui	a5,0xfe000
     d28:	fef42623          	sw	a5,-20(s0)
     d2c:	fdc42783          	lw	a5,-36(s0)
     d30:	0007c783          	lbu	a5,0(a5) # fe000000 <counter+0xfdffc9a4>
     d34:	01079713          	slli	a4,a5,0x10
     d38:	fec42783          	lw	a5,-20(s0)
     d3c:	00f70733          	add	a4,a4,a5
     d40:	fd842783          	lw	a5,-40(s0)
     d44:	0007c783          	lbu	a5,0(a5)
     d48:	00879793          	slli	a5,a5,0x8
     d4c:	00f707b3          	add	a5,a4,a5
     d50:	fd442703          	lw	a4,-44(s0)
     d54:	00074703          	lbu	a4,0(a4)
     d58:	00e787b3          	add	a5,a5,a4
     d5c:	fef42623          	sw	a5,-20(s0)
     d60:	fec42503          	lw	a0,-20(s0)
     d64:	e48ff0ef          	jal	ra,3ac <output_chunk32>
     d68:	fdc42783          	lw	a5,-36(s0)
     d6c:	0007c703          	lbu	a4,0(a5)
     d70:	000037b7          	lui	a5,0x3
     d74:	64e78623          	sb	a4,1612(a5) # 364c <previous_pixel_r>
     d78:	fd842783          	lw	a5,-40(s0)
     d7c:	0007c703          	lbu	a4,0(a5)
     d80:	000037b7          	lui	a5,0x3
     d84:	64e786a3          	sb	a4,1613(a5) # 364d <previous_pixel_g>
     d88:	fd442783          	lw	a5,-44(s0)
     d8c:	0007c703          	lbu	a4,0(a5)
     d90:	000037b7          	lui	a5,0x3
     d94:	64e78723          	sb	a4,1614(a5) # 364e <previous_pixel_b>
     d98:	fd042783          	lw	a5,-48(s0)
     d9c:	0007c703          	lbu	a4,0(a5)
     da0:	000037b7          	lui	a5,0x3
     da4:	64e787a3          	sb	a4,1615(a5) # 364f <previous_pixel_a>
     da8:	00100793          	addi	a5,zero,1
     dac:	0080006f          	jal	zero,db4 <rgb_chunk+0xc4>
     db0:	00000793          	addi	a5,zero,0
     db4:	00078513          	addi	a0,a5,0
     db8:	02c12083          	lw	ra,44(sp)
     dbc:	02812403          	lw	s0,40(sp)
     dc0:	03010113          	addi	sp,sp,48
     dc4:	00008067          	jalr	zero,0(ra)

00000dc8 <rgba_chunk>:
     dc8:	fd010113          	addi	sp,sp,-48
     dcc:	02112623          	sw	ra,44(sp)
     dd0:	02812423          	sw	s0,40(sp)
     dd4:	03010413          	addi	s0,sp,48
     dd8:	fca42e23          	sw	a0,-36(s0)
     ddc:	fcb42c23          	sw	a1,-40(s0)
     de0:	fcc42a23          	sw	a2,-44(s0)
     de4:	fcd42823          	sw	a3,-48(s0)
     de8:	fdc42783          	lw	a5,-36(s0)
     dec:	0007c783          	lbu	a5,0(a5)
     df0:	01879713          	slli	a4,a5,0x18
     df4:	fd842783          	lw	a5,-40(s0)
     df8:	0007c783          	lbu	a5,0(a5)
     dfc:	01079793          	slli	a5,a5,0x10
     e00:	00f70733          	add	a4,a4,a5
     e04:	fd442783          	lw	a5,-44(s0)
     e08:	0007c783          	lbu	a5,0(a5)
     e0c:	00879793          	slli	a5,a5,0x8
     e10:	00f707b3          	add	a5,a4,a5
     e14:	fd042703          	lw	a4,-48(s0)
     e18:	00074703          	lbu	a4,0(a4)
     e1c:	00e787b3          	add	a5,a5,a4
     e20:	fef42623          	sw	a5,-20(s0)
     e24:	fff00793          	addi	a5,zero,-1
     e28:	fef405a3          	sb	a5,-21(s0)
     e2c:	feb44783          	lbu	a5,-21(s0)
     e30:	00078513          	addi	a0,a5,0
     e34:	cc8ff0ef          	jal	ra,2fc <output_chunk8>
     e38:	fec42503          	lw	a0,-20(s0)
     e3c:	d70ff0ef          	jal	ra,3ac <output_chunk32>
     e40:	00000013          	addi	zero,zero,0
     e44:	02c12083          	lw	ra,44(sp)
     e48:	02812403          	lw	s0,40(sp)
     e4c:	03010113          	addi	sp,sp,48
     e50:	00008067          	jalr	zero,0(ra)

00000e54 <end_marker>:
     e54:	fe010113          	addi	sp,sp,-32
     e58:	00112e23          	sw	ra,28(sp)
     e5c:	00812c23          	sw	s0,24(sp)
     e60:	02010413          	addi	s0,sp,32
     e64:	fc000793          	addi	a5,zero,-64
     e68:	fef407a3          	sb	a5,-17(s0)
     e6c:	000037b7          	lui	a5,0x3
     e70:	6587c783          	lbu	a5,1624(a5) # 3658 <RLE>
     e74:	fef44703          	lbu	a4,-17(s0)
     e78:	00e787b3          	add	a5,a5,a4
     e7c:	fef40723          	sb	a5,-18(s0)
     e80:	fee44783          	lbu	a5,-18(s0)
     e84:	00078513          	addi	a0,a5,0
     e88:	c74ff0ef          	jal	ra,2fc <output_chunk8>
     e8c:	000037b7          	lui	a5,0x3
     e90:	64078c23          	sb	zero,1624(a5) # 3658 <RLE>
     e94:	fe042423          	sw	zero,-24(s0)
     e98:	fe842503          	lw	a0,-24(s0)
     e9c:	d10ff0ef          	jal	ra,3ac <output_chunk32>
     ea0:	00100793          	addi	a5,zero,1
     ea4:	fef42423          	sw	a5,-24(s0)
     ea8:	fe842503          	lw	a0,-24(s0)
     eac:	d00ff0ef          	jal	ra,3ac <output_chunk32>
     eb0:	00000013          	addi	zero,zero,0
     eb4:	01c12083          	lw	ra,28(sp)
     eb8:	01812403          	lw	s0,24(sp)
     ebc:	02010113          	addi	sp,sp,32
     ec0:	00008067          	jalr	zero,0(ra)

00000ec4 <output_chunk>:
     ec4:	fe010113          	addi	sp,sp,-32
     ec8:	00112e23          	sw	ra,28(sp)
     ecc:	00812c23          	sw	s0,24(sp)
     ed0:	02010413          	addi	s0,sp,32
     ed4:	fea42623          	sw	a0,-20(s0)
     ed8:	feb42423          	sw	a1,-24(s0)
     edc:	fec42223          	sw	a2,-28(s0)
     ee0:	fed42023          	sw	a3,-32(s0)
     ee4:	fe042683          	lw	a3,-32(s0)
     ee8:	fe442603          	lw	a2,-28(s0)
     eec:	fe842583          	lw	a1,-24(s0)
     ef0:	fec42503          	lw	a0,-20(s0)
     ef4:	f10ff0ef          	jal	ra,604 <run_chunk>
     ef8:	00050793          	addi	a5,a0,0
     efc:	00078713          	addi	a4,a5,0
     f00:	00100793          	addi	a5,zero,1
     f04:	08f70463          	beq	a4,a5,f8c <output_chunk+0xc8>
     f08:	fe042683          	lw	a3,-32(s0)
     f0c:	fe442603          	lw	a2,-28(s0)
     f10:	fe842583          	lw	a1,-24(s0)
     f14:	fec42503          	lw	a0,-20(s0)
     f18:	91dff0ef          	jal	ra,834 <index_chunk>
     f1c:	00050793          	addi	a5,a0,0
     f20:	00078713          	addi	a4,a5,0
     f24:	00100793          	addi	a5,zero,1
     f28:	06f70663          	beq	a4,a5,f94 <output_chunk+0xd0>
     f2c:	fe042683          	lw	a3,-32(s0)
     f30:	fe442603          	lw	a2,-28(s0)
     f34:	fe842583          	lw	a1,-24(s0)
     f38:	fec42503          	lw	a0,-20(s0)
     f3c:	aa9ff0ef          	jal	ra,9e4 <diff_chunk>
     f40:	00050793          	addi	a5,a0,0
     f44:	00078713          	addi	a4,a5,0
     f48:	00100793          	addi	a5,zero,1
     f4c:	04f70863          	beq	a4,a5,f9c <output_chunk+0xd8>
     f50:	fe042683          	lw	a3,-32(s0)
     f54:	fe442603          	lw	a2,-28(s0)
     f58:	fe842583          	lw	a1,-24(s0)
     f5c:	fec42503          	lw	a0,-20(s0)
     f60:	c0dff0ef          	jal	ra,b6c <luma_chunk>
     f64:	00050793          	addi	a5,a0,0
     f68:	00078713          	addi	a4,a5,0
     f6c:	00100793          	addi	a5,zero,1
     f70:	02f70a63          	beq	a4,a5,fa4 <output_chunk+0xe0>
     f74:	fe042683          	lw	a3,-32(s0)
     f78:	fe442603          	lw	a2,-28(s0)
     f7c:	fe842583          	lw	a1,-24(s0)
     f80:	fec42503          	lw	a0,-20(s0)
     f84:	d6dff0ef          	jal	ra,cf0 <rgb_chunk>
     f88:	0200006f          	jal	zero,fa8 <output_chunk+0xe4>
     f8c:	00000013          	addi	zero,zero,0
     f90:	0180006f          	jal	zero,fa8 <output_chunk+0xe4>
     f94:	00000013          	addi	zero,zero,0
     f98:	0100006f          	jal	zero,fa8 <output_chunk+0xe4>
     f9c:	00000013          	addi	zero,zero,0
     fa0:	0080006f          	jal	zero,fa8 <output_chunk+0xe4>
     fa4:	00000013          	addi	zero,zero,0
     fa8:	01c12083          	lw	ra,28(sp)
     fac:	01812403          	lw	s0,24(sp)
     fb0:	02010113          	addi	sp,sp,32
     fb4:	00008067          	jalr	zero,0(ra)

00000fb8 <irq_handler>:
     fb8:	fe010113          	addi	sp,sp,-32
     fbc:	00112e23          	sw	ra,28(sp)
     fc0:	00812c23          	sw	s0,24(sp)
     fc4:	02010413          	addi	s0,sp,32
     fc8:	fea42623          	sw	a0,-20(s0)
     fcc:	00000013          	addi	zero,zero,0
     fd0:	01c12083          	lw	ra,28(sp)
     fd4:	01812403          	lw	s0,24(sp)
     fd8:	02010113          	addi	sp,sp,32
     fdc:	00008067          	jalr	zero,0(ra)

00000fe0 <main>:
     fe0:	fe010113          	addi	sp,sp,-32
     fe4:	00112e23          	sw	ra,28(sp)
     fe8:	00812c23          	sw	s0,24(sp)
     fec:	02010413          	addi	s0,sp,32
     ff0:	820007b7          	lui	a5,0x82000
     ff4:	00878793          	addi	a5,a5,8 # 82000008 <counter+0x81ffc9ac>
     ff8:	0007a783          	lw	a5,0(a5)
     ffc:	0107d793          	srli	a5,a5,0x10
    1000:	fef40723          	sb	a5,-18(s0)
    1004:	820007b7          	lui	a5,0x82000
    1008:	00878793          	addi	a5,a5,8 # 82000008 <counter+0x81ffc9ac>
    100c:	0007a783          	lw	a5,0(a5)
    1010:	0087d793          	srli	a5,a5,0x8
    1014:	fef406a3          	sb	a5,-19(s0)
    1018:	fee44783          	lbu	a5,-18(s0)
    101c:	fed44703          	lbu	a4,-19(s0)
    1020:	00000693          	addi	a3,zero,0
    1024:	00300613          	addi	a2,zero,3
    1028:	00070593          	addi	a1,a4,0
    102c:	00078513          	addi	a0,a5,0
    1030:	c94ff0ef          	jal	ra,4c4 <output_header>
    1034:	fe0407a3          	sb	zero,-17(s0)
    1038:	0a00006f          	jal	zero,10d8 <main+0xf8>
    103c:	0d9000ef          	jal	ra,1914 <SENSOR_fetch>
    1040:	fea42423          	sw	a0,-24(s0)
    1044:	fe842783          	lw	a5,-24(s0)
    1048:	0187d793          	srli	a5,a5,0x18
    104c:	0ff7f793          	andi	a5,a5,255
    1050:	fef403a3          	sb	a5,-25(s0)
    1054:	fe842783          	lw	a5,-24(s0)
    1058:	0107d793          	srli	a5,a5,0x10
    105c:	0ff7f793          	andi	a5,a5,255
    1060:	fef40323          	sb	a5,-26(s0)
    1064:	fe842783          	lw	a5,-24(s0)
    1068:	0087d793          	srli	a5,a5,0x8
    106c:	0ff7f793          	andi	a5,a5,255
    1070:	fef402a3          	sb	a5,-27(s0)
    1074:	fe842783          	lw	a5,-24(s0)
    1078:	0ff7f793          	andi	a5,a5,255
    107c:	fef40223          	sb	a5,-28(s0)
    1080:	cafec7b7          	lui	a5,0xcafec
    1084:	abe78513          	addi	a0,a5,-1346 # cafebabe <counter+0xcafe8462>
    1088:	b24ff0ef          	jal	ra,3ac <output_chunk32>
    108c:	fe744783          	lbu	a5,-25(s0)
    1090:	00078513          	addi	a0,a5,0
    1094:	a68ff0ef          	jal	ra,2fc <output_chunk8>
    1098:	fe644783          	lbu	a5,-26(s0)
    109c:	00078513          	addi	a0,a5,0
    10a0:	a5cff0ef          	jal	ra,2fc <output_chunk8>
    10a4:	fe544783          	lbu	a5,-27(s0)
    10a8:	00078513          	addi	a0,a5,0
    10ac:	a50ff0ef          	jal	ra,2fc <output_chunk8>
    10b0:	fe440693          	addi	a3,s0,-28
    10b4:	fe540613          	addi	a2,s0,-27
    10b8:	fe640713          	addi	a4,s0,-26
    10bc:	fe740793          	addi	a5,s0,-25
    10c0:	00070593          	addi	a1,a4,0
    10c4:	00078513          	addi	a0,a5,0
    10c8:	dfdff0ef          	jal	ra,ec4 <output_chunk>
    10cc:	fef44783          	lbu	a5,-17(s0)
    10d0:	00178793          	addi	a5,a5,1
    10d4:	fef407a3          	sb	a5,-17(s0)
    10d8:	fef44703          	lbu	a4,-17(s0)
    10dc:	03f00793          	addi	a5,zero,63
    10e0:	f4e7fee3          	bgeu	a5,a4,103c <main+0x5c>
    10e4:	d71ff0ef          	jal	ra,e54 <end_marker>
    10e8:	0000006f          	jal	zero,10e8 <main+0x108>

000010ec <umult>:
    10ec:	fd010113          	addi	sp,sp,-48
    10f0:	02112623          	sw	ra,44(sp)
    10f4:	02812423          	sw	s0,40(sp)
    10f8:	03010413          	addi	s0,sp,48
    10fc:	fca42e23          	sw	a0,-36(s0)
    1100:	fcb42c23          	sw	a1,-40(s0)
    1104:	fe042623          	sw	zero,-20(s0)
    1108:	0380006f          	jal	zero,1140 <umult+0x54>
    110c:	fd842783          	lw	a5,-40(s0)
    1110:	0017f793          	andi	a5,a5,1
    1114:	00078a63          	beq	a5,zero,1128 <umult+0x3c>
    1118:	fec42703          	lw	a4,-20(s0)
    111c:	fdc42783          	lw	a5,-36(s0)
    1120:	00f707b3          	add	a5,a4,a5
    1124:	fef42623          	sw	a5,-20(s0)
    1128:	fdc42783          	lw	a5,-36(s0)
    112c:	00179793          	slli	a5,a5,0x1
    1130:	fcf42e23          	sw	a5,-36(s0)
    1134:	fd842783          	lw	a5,-40(s0)
    1138:	0017d793          	srli	a5,a5,0x1
    113c:	fcf42c23          	sw	a5,-40(s0)
    1140:	fd842783          	lw	a5,-40(s0)
    1144:	fc0794e3          	bne	a5,zero,110c <umult+0x20>
    1148:	fec42783          	lw	a5,-20(s0)
    114c:	00078513          	addi	a0,a5,0
    1150:	02c12083          	lw	ra,44(sp)
    1154:	02812403          	lw	s0,40(sp)
    1158:	03010113          	addi	sp,sp,48
    115c:	00008067          	jalr	zero,0(ra)

00001160 <udiv>:
    1160:	fd010113          	addi	sp,sp,-48
    1164:	02112623          	sw	ra,44(sp)
    1168:	02812423          	sw	s0,40(sp)
    116c:	03010413          	addi	s0,sp,48
    1170:	fca42e23          	sw	a0,-36(s0)
    1174:	fcb42c23          	sw	a1,-40(s0)
    1178:	fe042623          	sw	zero,-20(s0)
    117c:	01000793          	addi	a5,zero,16
    1180:	fef42423          	sw	a5,-24(s0)
    1184:	fe842783          	lw	a5,-24(s0)
    1188:	fff78793          	addi	a5,a5,-1
    118c:	fef42423          	sw	a5,-24(s0)
    1190:	fe842783          	lw	a5,-24(s0)
    1194:	fd842703          	lw	a4,-40(s0)
    1198:	00f717b3          	sll	a5,a4,a5
    119c:	fdc42703          	lw	a4,-36(s0)
    11a0:	02f76c63          	bltu	a4,a5,11d8 <udiv+0x78>
    11a4:	fe842783          	lw	a5,-24(s0)
    11a8:	fd842703          	lw	a4,-40(s0)
    11ac:	00f717b3          	sll	a5,a4,a5
    11b0:	fdc42703          	lw	a4,-36(s0)
    11b4:	40f707b3          	sub	a5,a4,a5
    11b8:	fcf42e23          	sw	a5,-36(s0)
    11bc:	fe842783          	lw	a5,-24(s0)
    11c0:	00100713          	addi	a4,zero,1
    11c4:	00f717b3          	sll	a5,a4,a5
    11c8:	00078713          	addi	a4,a5,0
    11cc:	fec42783          	lw	a5,-20(s0)
    11d0:	00e787b3          	add	a5,a5,a4
    11d4:	fef42623          	sw	a5,-20(s0)
    11d8:	fe842783          	lw	a5,-24(s0)
    11dc:	fa0794e3          	bne	a5,zero,1184 <udiv+0x24>
    11e0:	fec42783          	lw	a5,-20(s0)
    11e4:	00078513          	addi	a0,a5,0
    11e8:	02c12083          	lw	ra,44(sp)
    11ec:	02812403          	lw	s0,40(sp)
    11f0:	03010113          	addi	sp,sp,48
    11f4:	00008067          	jalr	zero,0(ra)

000011f8 <umod>:
    11f8:	fe010113          	addi	sp,sp,-32
    11fc:	00112e23          	sw	ra,28(sp)
    1200:	00812c23          	sw	s0,24(sp)
    1204:	02010413          	addi	s0,sp,32
    1208:	fea42623          	sw	a0,-20(s0)
    120c:	feb42423          	sw	a1,-24(s0)
    1210:	fe842583          	lw	a1,-24(s0)
    1214:	fec42503          	lw	a0,-20(s0)
    1218:	f49ff0ef          	jal	ra,1160 <udiv>
    121c:	00050793          	addi	a5,a0,0
    1220:	fe842583          	lw	a1,-24(s0)
    1224:	00078513          	addi	a0,a5,0
    1228:	ec5ff0ef          	jal	ra,10ec <umult>
    122c:	00050713          	addi	a4,a0,0
    1230:	fec42783          	lw	a5,-20(s0)
    1234:	40e787b3          	sub	a5,a5,a4
    1238:	fef42623          	sw	a5,-20(s0)
    123c:	fec42783          	lw	a5,-20(s0)
    1240:	00078513          	addi	a0,a5,0
    1244:	01c12083          	lw	ra,28(sp)
    1248:	01812403          	lw	s0,24(sp)
    124c:	02010113          	addi	sp,sp,32
    1250:	00008067          	jalr	zero,0(ra)

00001254 <matrix_mult>:
    1254:	fe010113          	addi	sp,sp,-32
    1258:	00112e23          	sw	ra,28(sp)
    125c:	00812c23          	sw	s0,24(sp)
    1260:	00912a23          	sw	s1,20(sp)
    1264:	02010413          	addi	s0,sp,32
    1268:	fea42623          	sw	a0,-20(s0)
    126c:	feb42423          	sw	a1,-24(s0)
    1270:	fec42223          	sw	a2,-28(s0)
    1274:	fe842783          	lw	a5,-24(s0)
    1278:	0007a703          	lw	a4,0(a5)
    127c:	fe442783          	lw	a5,-28(s0)
    1280:	0007a783          	lw	a5,0(a5)
    1284:	00078593          	addi	a1,a5,0
    1288:	00070513          	addi	a0,a4,0
    128c:	f4dfe0ef          	jal	ra,1d8 <sw_mult>
    1290:	00050493          	addi	s1,a0,0
    1294:	fe842783          	lw	a5,-24(s0)
    1298:	00c7a703          	lw	a4,12(a5)
    129c:	fe442783          	lw	a5,-28(s0)
    12a0:	0047a783          	lw	a5,4(a5)
    12a4:	00078593          	addi	a1,a5,0
    12a8:	00070513          	addi	a0,a4,0
    12ac:	f2dfe0ef          	jal	ra,1d8 <sw_mult>
    12b0:	00050793          	addi	a5,a0,0
    12b4:	00f484b3          	add	s1,s1,a5
    12b8:	fe842783          	lw	a5,-24(s0)
    12bc:	0187a703          	lw	a4,24(a5)
    12c0:	fe442783          	lw	a5,-28(s0)
    12c4:	0087a783          	lw	a5,8(a5)
    12c8:	00078593          	addi	a1,a5,0
    12cc:	00070513          	addi	a0,a4,0
    12d0:	f09fe0ef          	jal	ra,1d8 <sw_mult>
    12d4:	00050793          	addi	a5,a0,0
    12d8:	00f48733          	add	a4,s1,a5
    12dc:	fec42783          	lw	a5,-20(s0)
    12e0:	00e7a023          	sw	a4,0(a5)
    12e4:	fe842783          	lw	a5,-24(s0)
    12e8:	0007a703          	lw	a4,0(a5)
    12ec:	fe442783          	lw	a5,-28(s0)
    12f0:	00c7a783          	lw	a5,12(a5)
    12f4:	00078593          	addi	a1,a5,0
    12f8:	00070513          	addi	a0,a4,0
    12fc:	eddfe0ef          	jal	ra,1d8 <sw_mult>
    1300:	00050493          	addi	s1,a0,0
    1304:	fe842783          	lw	a5,-24(s0)
    1308:	00c7a703          	lw	a4,12(a5)
    130c:	fe442783          	lw	a5,-28(s0)
    1310:	0107a783          	lw	a5,16(a5)
    1314:	00078593          	addi	a1,a5,0
    1318:	00070513          	addi	a0,a4,0
    131c:	ebdfe0ef          	jal	ra,1d8 <sw_mult>
    1320:	00050793          	addi	a5,a0,0
    1324:	00f484b3          	add	s1,s1,a5
    1328:	fe842783          	lw	a5,-24(s0)
    132c:	0187a703          	lw	a4,24(a5)
    1330:	fe442783          	lw	a5,-28(s0)
    1334:	0147a783          	lw	a5,20(a5)
    1338:	00078593          	addi	a1,a5,0
    133c:	00070513          	addi	a0,a4,0
    1340:	e99fe0ef          	jal	ra,1d8 <sw_mult>
    1344:	00050793          	addi	a5,a0,0
    1348:	00f48733          	add	a4,s1,a5
    134c:	fec42783          	lw	a5,-20(s0)
    1350:	00e7a623          	sw	a4,12(a5)
    1354:	fe842783          	lw	a5,-24(s0)
    1358:	0007a703          	lw	a4,0(a5)
    135c:	fe442783          	lw	a5,-28(s0)
    1360:	0187a783          	lw	a5,24(a5)
    1364:	00078593          	addi	a1,a5,0
    1368:	00070513          	addi	a0,a4,0
    136c:	e6dfe0ef          	jal	ra,1d8 <sw_mult>
    1370:	00050493          	addi	s1,a0,0
    1374:	fe842783          	lw	a5,-24(s0)
    1378:	00c7a703          	lw	a4,12(a5)
    137c:	fe442783          	lw	a5,-28(s0)
    1380:	01c7a783          	lw	a5,28(a5)
    1384:	00078593          	addi	a1,a5,0
    1388:	00070513          	addi	a0,a4,0
    138c:	e4dfe0ef          	jal	ra,1d8 <sw_mult>
    1390:	00050793          	addi	a5,a0,0
    1394:	00f484b3          	add	s1,s1,a5
    1398:	fe842783          	lw	a5,-24(s0)
    139c:	0187a703          	lw	a4,24(a5)
    13a0:	fe442783          	lw	a5,-28(s0)
    13a4:	0207a783          	lw	a5,32(a5)
    13a8:	00078593          	addi	a1,a5,0
    13ac:	00070513          	addi	a0,a4,0
    13b0:	e29fe0ef          	jal	ra,1d8 <sw_mult>
    13b4:	00050793          	addi	a5,a0,0
    13b8:	00f48733          	add	a4,s1,a5
    13bc:	fec42783          	lw	a5,-20(s0)
    13c0:	00e7ac23          	sw	a4,24(a5)
    13c4:	fe842783          	lw	a5,-24(s0)
    13c8:	0047a703          	lw	a4,4(a5)
    13cc:	fe442783          	lw	a5,-28(s0)
    13d0:	0007a783          	lw	a5,0(a5)
    13d4:	00078593          	addi	a1,a5,0
    13d8:	00070513          	addi	a0,a4,0
    13dc:	dfdfe0ef          	jal	ra,1d8 <sw_mult>
    13e0:	00050493          	addi	s1,a0,0
    13e4:	fe842783          	lw	a5,-24(s0)
    13e8:	0107a703          	lw	a4,16(a5)
    13ec:	fe442783          	lw	a5,-28(s0)
    13f0:	0047a783          	lw	a5,4(a5)
    13f4:	00078593          	addi	a1,a5,0
    13f8:	00070513          	addi	a0,a4,0
    13fc:	dddfe0ef          	jal	ra,1d8 <sw_mult>
    1400:	00050793          	addi	a5,a0,0
    1404:	00f484b3          	add	s1,s1,a5
    1408:	fe842783          	lw	a5,-24(s0)
    140c:	01c7a703          	lw	a4,28(a5)
    1410:	fe442783          	lw	a5,-28(s0)
    1414:	0087a783          	lw	a5,8(a5)
    1418:	00078593          	addi	a1,a5,0
    141c:	00070513          	addi	a0,a4,0
    1420:	db9fe0ef          	jal	ra,1d8 <sw_mult>
    1424:	00050793          	addi	a5,a0,0
    1428:	00f48733          	add	a4,s1,a5
    142c:	fec42783          	lw	a5,-20(s0)
    1430:	00e7a223          	sw	a4,4(a5)
    1434:	fe842783          	lw	a5,-24(s0)
    1438:	0047a703          	lw	a4,4(a5)
    143c:	fe442783          	lw	a5,-28(s0)
    1440:	00c7a783          	lw	a5,12(a5)
    1444:	00078593          	addi	a1,a5,0
    1448:	00070513          	addi	a0,a4,0
    144c:	d8dfe0ef          	jal	ra,1d8 <sw_mult>
    1450:	00050493          	addi	s1,a0,0
    1454:	fe842783          	lw	a5,-24(s0)
    1458:	0107a703          	lw	a4,16(a5)
    145c:	fe442783          	lw	a5,-28(s0)
    1460:	0107a783          	lw	a5,16(a5)
    1464:	00078593          	addi	a1,a5,0
    1468:	00070513          	addi	a0,a4,0
    146c:	d6dfe0ef          	jal	ra,1d8 <sw_mult>
    1470:	00050793          	addi	a5,a0,0
    1474:	00f484b3          	add	s1,s1,a5
    1478:	fe842783          	lw	a5,-24(s0)
    147c:	01c7a703          	lw	a4,28(a5)
    1480:	fe442783          	lw	a5,-28(s0)
    1484:	0147a783          	lw	a5,20(a5)
    1488:	00078593          	addi	a1,a5,0
    148c:	00070513          	addi	a0,a4,0
    1490:	d49fe0ef          	jal	ra,1d8 <sw_mult>
    1494:	00050793          	addi	a5,a0,0
    1498:	00f48733          	add	a4,s1,a5
    149c:	fec42783          	lw	a5,-20(s0)
    14a0:	00e7a823          	sw	a4,16(a5)
    14a4:	fe842783          	lw	a5,-24(s0)
    14a8:	0047a703          	lw	a4,4(a5)
    14ac:	fe442783          	lw	a5,-28(s0)
    14b0:	0187a783          	lw	a5,24(a5)
    14b4:	00078593          	addi	a1,a5,0
    14b8:	00070513          	addi	a0,a4,0
    14bc:	d1dfe0ef          	jal	ra,1d8 <sw_mult>
    14c0:	00050493          	addi	s1,a0,0
    14c4:	fe842783          	lw	a5,-24(s0)
    14c8:	0107a703          	lw	a4,16(a5)
    14cc:	fe442783          	lw	a5,-28(s0)
    14d0:	01c7a783          	lw	a5,28(a5)
    14d4:	00078593          	addi	a1,a5,0
    14d8:	00070513          	addi	a0,a4,0
    14dc:	cfdfe0ef          	jal	ra,1d8 <sw_mult>
    14e0:	00050793          	addi	a5,a0,0
    14e4:	00f484b3          	add	s1,s1,a5
    14e8:	fe842783          	lw	a5,-24(s0)
    14ec:	01c7a703          	lw	a4,28(a5)
    14f0:	fe442783          	lw	a5,-28(s0)
    14f4:	0207a783          	lw	a5,32(a5)
    14f8:	00078593          	addi	a1,a5,0
    14fc:	00070513          	addi	a0,a4,0
    1500:	cd9fe0ef          	jal	ra,1d8 <sw_mult>
    1504:	00050793          	addi	a5,a0,0
    1508:	00f48733          	add	a4,s1,a5
    150c:	fec42783          	lw	a5,-20(s0)
    1510:	00e7ae23          	sw	a4,28(a5)
    1514:	fe842783          	lw	a5,-24(s0)
    1518:	0087a703          	lw	a4,8(a5)
    151c:	fe442783          	lw	a5,-28(s0)
    1520:	0007a783          	lw	a5,0(a5)
    1524:	00078593          	addi	a1,a5,0
    1528:	00070513          	addi	a0,a4,0
    152c:	cadfe0ef          	jal	ra,1d8 <sw_mult>
    1530:	00050493          	addi	s1,a0,0
    1534:	fe842783          	lw	a5,-24(s0)
    1538:	0147a703          	lw	a4,20(a5)
    153c:	fe442783          	lw	a5,-28(s0)
    1540:	0047a783          	lw	a5,4(a5)
    1544:	00078593          	addi	a1,a5,0
    1548:	00070513          	addi	a0,a4,0
    154c:	c8dfe0ef          	jal	ra,1d8 <sw_mult>
    1550:	00050793          	addi	a5,a0,0
    1554:	00f484b3          	add	s1,s1,a5
    1558:	fe842783          	lw	a5,-24(s0)
    155c:	0207a703          	lw	a4,32(a5)
    1560:	fe442783          	lw	a5,-28(s0)
    1564:	0087a783          	lw	a5,8(a5)
    1568:	00078593          	addi	a1,a5,0
    156c:	00070513          	addi	a0,a4,0
    1570:	c69fe0ef          	jal	ra,1d8 <sw_mult>
    1574:	00050793          	addi	a5,a0,0
    1578:	00f48733          	add	a4,s1,a5
    157c:	fec42783          	lw	a5,-20(s0)
    1580:	00e7a423          	sw	a4,8(a5)
    1584:	fe842783          	lw	a5,-24(s0)
    1588:	0087a703          	lw	a4,8(a5)
    158c:	fe442783          	lw	a5,-28(s0)
    1590:	00c7a783          	lw	a5,12(a5)
    1594:	00078593          	addi	a1,a5,0
    1598:	00070513          	addi	a0,a4,0
    159c:	c3dfe0ef          	jal	ra,1d8 <sw_mult>
    15a0:	00050493          	addi	s1,a0,0
    15a4:	fe842783          	lw	a5,-24(s0)
    15a8:	0147a703          	lw	a4,20(a5)
    15ac:	fe442783          	lw	a5,-28(s0)
    15b0:	0107a783          	lw	a5,16(a5)
    15b4:	00078593          	addi	a1,a5,0
    15b8:	00070513          	addi	a0,a4,0
    15bc:	c1dfe0ef          	jal	ra,1d8 <sw_mult>
    15c0:	00050793          	addi	a5,a0,0
    15c4:	00f484b3          	add	s1,s1,a5
    15c8:	fe842783          	lw	a5,-24(s0)
    15cc:	0207a703          	lw	a4,32(a5)
    15d0:	fe442783          	lw	a5,-28(s0)
    15d4:	0147a783          	lw	a5,20(a5)
    15d8:	00078593          	addi	a1,a5,0
    15dc:	00070513          	addi	a0,a4,0
    15e0:	bf9fe0ef          	jal	ra,1d8 <sw_mult>
    15e4:	00050793          	addi	a5,a0,0
    15e8:	00f48733          	add	a4,s1,a5
    15ec:	fec42783          	lw	a5,-20(s0)
    15f0:	00e7aa23          	sw	a4,20(a5)
    15f4:	fe842783          	lw	a5,-24(s0)
    15f8:	0087a703          	lw	a4,8(a5)
    15fc:	fe442783          	lw	a5,-28(s0)
    1600:	0187a783          	lw	a5,24(a5)
    1604:	00078593          	addi	a1,a5,0
    1608:	00070513          	addi	a0,a4,0
    160c:	bcdfe0ef          	jal	ra,1d8 <sw_mult>
    1610:	00050493          	addi	s1,a0,0
    1614:	fe842783          	lw	a5,-24(s0)
    1618:	0147a703          	lw	a4,20(a5)
    161c:	fe442783          	lw	a5,-28(s0)
    1620:	01c7a783          	lw	a5,28(a5)
    1624:	00078593          	addi	a1,a5,0
    1628:	00070513          	addi	a0,a4,0
    162c:	badfe0ef          	jal	ra,1d8 <sw_mult>
    1630:	00050793          	addi	a5,a0,0
    1634:	00f484b3          	add	s1,s1,a5
    1638:	fe842783          	lw	a5,-24(s0)
    163c:	0207a703          	lw	a4,32(a5)
    1640:	fe442783          	lw	a5,-28(s0)
    1644:	0207a783          	lw	a5,32(a5)
    1648:	00078593          	addi	a1,a5,0
    164c:	00070513          	addi	a0,a4,0
    1650:	b89fe0ef          	jal	ra,1d8 <sw_mult>
    1654:	00050793          	addi	a5,a0,0
    1658:	00f48733          	add	a4,s1,a5
    165c:	fec42783          	lw	a5,-20(s0)
    1660:	02e7a023          	sw	a4,32(a5)
    1664:	00000013          	addi	zero,zero,0
    1668:	01c12083          	lw	ra,28(sp)
    166c:	01812403          	lw	s0,24(sp)
    1670:	01412483          	lw	s1,20(sp)
    1674:	02010113          	addi	sp,sp,32
    1678:	00008067          	jalr	zero,0(ra)

0000167c <print_chr>:
    167c:	fe010113          	addi	sp,sp,-32
    1680:	00112e23          	sw	ra,28(sp)
    1684:	00812c23          	sw	s0,24(sp)
    1688:	02010413          	addi	s0,sp,32
    168c:	00050793          	addi	a5,a0,0
    1690:	fef407a3          	sb	a5,-17(s0)
    1694:	800007b7          	lui	a5,0x80000
    1698:	fef44703          	lbu	a4,-17(s0)
    169c:	00e7a023          	sw	a4,0(a5) # 80000000 <counter+0x7fffc9a4>
    16a0:	00000013          	addi	zero,zero,0
    16a4:	01c12083          	lw	ra,28(sp)
    16a8:	01812403          	lw	s0,24(sp)
    16ac:	02010113          	addi	sp,sp,32
    16b0:	00008067          	jalr	zero,0(ra)

000016b4 <print_str>:
    16b4:	fe010113          	addi	sp,sp,-32
    16b8:	00112e23          	sw	ra,28(sp)
    16bc:	00812c23          	sw	s0,24(sp)
    16c0:	02010413          	addi	s0,sp,32
    16c4:	fea42623          	sw	a0,-20(s0)
    16c8:	01c0006f          	jal	zero,16e4 <print_str+0x30>
    16cc:	fec42783          	lw	a5,-20(s0)
    16d0:	00178713          	addi	a4,a5,1
    16d4:	fee42623          	sw	a4,-20(s0)
    16d8:	0007c703          	lbu	a4,0(a5)
    16dc:	800007b7          	lui	a5,0x80000
    16e0:	00e7a023          	sw	a4,0(a5) # 80000000 <counter+0x7fffc9a4>
    16e4:	fec42783          	lw	a5,-20(s0)
    16e8:	0007c783          	lbu	a5,0(a5)
    16ec:	fe0790e3          	bne	a5,zero,16cc <print_str+0x18>
    16f0:	00000013          	addi	zero,zero,0
    16f4:	00000013          	addi	zero,zero,0
    16f8:	01c12083          	lw	ra,28(sp)
    16fc:	01812403          	lw	s0,24(sp)
    1700:	02010113          	addi	sp,sp,32
    1704:	00008067          	jalr	zero,0(ra)

00001708 <print_hex>:
    1708:	fd010113          	addi	sp,sp,-48
    170c:	02112623          	sw	ra,44(sp)
    1710:	02812423          	sw	s0,40(sp)
    1714:	03010413          	addi	s0,sp,48
    1718:	fca42e23          	sw	a0,-36(s0)
    171c:	fcb42c23          	sw	a1,-40(s0)
    1720:	fd842783          	lw	a5,-40(s0)
    1724:	08078263          	beq	a5,zero,17a8 <print_hex+0xa0>
    1728:	fd842783          	lw	a5,-40(s0)
    172c:	00279793          	slli	a5,a5,0x2
    1730:	fef42423          	sw	a5,-24(s0)
    1734:	fe842783          	lw	a5,-24(s0)
    1738:	ffc78793          	addi	a5,a5,-4
    173c:	fef42623          	sw	a5,-20(s0)
    1740:	0500006f          	jal	zero,1790 <print_hex+0x88>
    1744:	fec42783          	lw	a5,-20(s0)
    1748:	fdc42703          	lw	a4,-36(s0)
    174c:	00f757b3          	srl	a5,a4,a5
    1750:	fef42223          	sw	a5,-28(s0)
    1754:	fe442783          	lw	a5,-28(s0)
    1758:	00f7f793          	andi	a5,a5,15
    175c:	fef42223          	sw	a5,-28(s0)
    1760:	000037b7          	lui	a5,0x3
    1764:	00478713          	addi	a4,a5,4 # 3004 <TCNT_stop+0x15e0>
    1768:	fe442783          	lw	a5,-28(s0)
    176c:	00f707b3          	add	a5,a4,a5
    1770:	0007c783          	lbu	a5,0(a5)
    1774:	fef401a3          	sb	a5,-29(s0)
    1778:	800007b7          	lui	a5,0x80000
    177c:	fe344703          	lbu	a4,-29(s0)
    1780:	00e7a023          	sw	a4,0(a5) # 80000000 <counter+0x7fffc9a4>
    1784:	fec42783          	lw	a5,-20(s0)
    1788:	ffc78793          	addi	a5,a5,-4
    178c:	fef42623          	sw	a5,-20(s0)
    1790:	fec42783          	lw	a5,-20(s0)
    1794:	fa07d8e3          	bge	a5,zero,1744 <print_hex+0x3c>
    1798:	000037b7          	lui	a5,0x3
    179c:	00078513          	addi	a0,a5,0 # 3000 <TCNT_stop+0x15dc>
    17a0:	f15ff0ef          	jal	ra,16b4 <print_str>
    17a4:	0080006f          	jal	zero,17ac <print_hex+0xa4>
    17a8:	00000013          	addi	zero,zero,0
    17ac:	02c12083          	lw	ra,44(sp)
    17b0:	02812403          	lw	s0,40(sp)
    17b4:	03010113          	addi	sp,sp,48
    17b8:	00008067          	jalr	zero,0(ra)

000017bc <print_dec>:
    17bc:	f9010113          	addi	sp,sp,-112
    17c0:	06112623          	sw	ra,108(sp)
    17c4:	06812423          	sw	s0,104(sp)
    17c8:	07010413          	addi	s0,sp,112
    17cc:	f8a42e23          	sw	a0,-100(s0)
    17d0:	fe042623          	sw	zero,-20(s0)
    17d4:	f9c42783          	lw	a5,-100(s0)
    17d8:	06079863          	bne	a5,zero,1848 <print_dec+0x8c>
    17dc:	800007b7          	lui	a5,0x80000
    17e0:	03000713          	addi	a4,zero,48
    17e4:	00e7a023          	sw	a4,0(a5) # 80000000 <counter+0x7fffc9a4>
    17e8:	000037b7          	lui	a5,0x3
    17ec:	00078513          	addi	a0,a5,0 # 3000 <TCNT_stop+0x15dc>
    17f0:	ec5ff0ef          	jal	ra,16b4 <print_str>
    17f4:	0b40006f          	jal	zero,18a8 <print_dec+0xec>
    17f8:	00a00593          	addi	a1,zero,10
    17fc:	f9c42503          	lw	a0,-100(s0)
    1800:	9f9ff0ef          	jal	ra,11f8 <umod>
    1804:	fea42223          	sw	a0,-28(s0)
    1808:	00a00593          	addi	a1,zero,10
    180c:	f9c42503          	lw	a0,-100(s0)
    1810:	951ff0ef          	jal	ra,1160 <udiv>
    1814:	f8a42e23          	sw	a0,-100(s0)
    1818:	fe442783          	lw	a5,-28(s0)
    181c:	00f7f793          	andi	a5,a5,15
    1820:	fef42223          	sw	a5,-28(s0)
    1824:	fec42703          	lw	a4,-20(s0)
    1828:	fa440793          	addi	a5,s0,-92
    182c:	00271713          	slli	a4,a4,0x2
    1830:	00f707b3          	add	a5,a4,a5
    1834:	fe442703          	lw	a4,-28(s0)
    1838:	00e7a023          	sw	a4,0(a5)
    183c:	fec42783          	lw	a5,-20(s0)
    1840:	00178793          	addi	a5,a5,1
    1844:	fef42623          	sw	a5,-20(s0)
    1848:	f9c42783          	lw	a5,-100(s0)
    184c:	fa0796e3          	bne	a5,zero,17f8 <print_dec+0x3c>
    1850:	0440006f          	jal	zero,1894 <print_dec+0xd8>
    1854:	fec42783          	lw	a5,-20(s0)
    1858:	fff78793          	addi	a5,a5,-1
    185c:	fef42623          	sw	a5,-20(s0)
    1860:	fec42703          	lw	a4,-20(s0)
    1864:	fa440793          	addi	a5,s0,-92
    1868:	00271713          	slli	a4,a4,0x2
    186c:	00f707b3          	add	a5,a4,a5
    1870:	0007a783          	lw	a5,0(a5)
    1874:	00003737          	lui	a4,0x3
    1878:	01870713          	addi	a4,a4,24 # 3018 <TCNT_stop+0x15f4>
    187c:	00f707b3          	add	a5,a4,a5
    1880:	0007c783          	lbu	a5,0(a5)
    1884:	fef405a3          	sb	a5,-21(s0)
    1888:	800007b7          	lui	a5,0x80000
    188c:	feb44703          	lbu	a4,-21(s0)
    1890:	00e7a023          	sw	a4,0(a5) # 80000000 <counter+0x7fffc9a4>
    1894:	fec42783          	lw	a5,-20(s0)
    1898:	fa079ee3          	bne	a5,zero,1854 <print_dec+0x98>
    189c:	000037b7          	lui	a5,0x3
    18a0:	00078513          	addi	a0,a5,0 # 3000 <TCNT_stop+0x15dc>
    18a4:	e11ff0ef          	jal	ra,16b4 <print_str>
    18a8:	06c12083          	lw	ra,108(sp)
    18ac:	06812403          	lw	s0,104(sp)
    18b0:	07010113          	addi	sp,sp,112
    18b4:	00008067          	jalr	zero,0(ra)

000018b8 <flash_leds>:
    18b8:	fd010113          	addi	sp,sp,-48
    18bc:	02112623          	sw	ra,44(sp)
    18c0:	02812423          	sw	s0,40(sp)
    18c4:	03010413          	addi	s0,sp,48
    18c8:	fca42e23          	sw	a0,-36(s0)
    18cc:	fe042623          	sw	zero,-20(s0)
    18d0:	01c0006f          	jal	zero,18ec <flash_leds+0x34>
    18d4:	800007b7          	lui	a5,0x80000
    18d8:	fdc42703          	lw	a4,-36(s0)
    18dc:	00e7a023          	sw	a4,0(a5) # 80000000 <counter+0x7fffc9a4>
    18e0:	fec42783          	lw	a5,-20(s0)
    18e4:	00178793          	addi	a5,a5,1
    18e8:	fef42623          	sw	a5,-20(s0)
    18ec:	fec42703          	lw	a4,-20(s0)
    18f0:	0065b7b7          	lui	a5,0x65b
    18f4:	70f78793          	addi	a5,a5,1807 # 65b70f <counter+0x6580b3>
    18f8:	fce7dee3          	bge	a5,a4,18d4 <flash_leds+0x1c>
    18fc:	00000013          	addi	zero,zero,0
    1900:	00000013          	addi	zero,zero,0
    1904:	02c12083          	lw	ra,44(sp)
    1908:	02812403          	lw	s0,40(sp)
    190c:	03010113          	addi	sp,sp,48
    1910:	00008067          	jalr	zero,0(ra)

00001914 <SENSOR_fetch>:
    1914:	fe010113          	addi	sp,sp,-32
    1918:	00112e23          	sw	ra,28(sp)
    191c:	00812c23          	sw	s0,24(sp)
    1920:	02010413          	addi	s0,sp,32
    1924:	820007b7          	lui	a5,0x82000
    1928:	00478793          	addi	a5,a5,4 # 82000004 <counter+0x81ffc9a8>
    192c:	0007a783          	lw	a5,0(a5)
    1930:	fef42623          	sw	a5,-20(s0)
    1934:	820007b7          	lui	a5,0x82000
    1938:	0007a703          	lw	a4,0(a5) # 82000000 <counter+0x81ffc9a4>
    193c:	820007b7          	lui	a5,0x82000
    1940:	00176713          	ori	a4,a4,1
    1944:	00e7a023          	sw	a4,0(a5) # 82000000 <counter+0x81ffc9a4>
    1948:	820007b7          	lui	a5,0x82000
    194c:	0007a703          	lw	a4,0(a5) # 82000000 <counter+0x81ffc9a4>
    1950:	820007b7          	lui	a5,0x82000
    1954:	ffe77713          	andi	a4,a4,-2
    1958:	00e7a023          	sw	a4,0(a5) # 82000000 <counter+0x81ffc9a4>
    195c:	fec42783          	lw	a5,-20(s0)
    1960:	00078513          	addi	a0,a5,0
    1964:	01c12083          	lw	ra,28(sp)
    1968:	01812403          	lw	s0,24(sp)
    196c:	02010113          	addi	sp,sp,32
    1970:	00008067          	jalr	zero,0(ra)

00001974 <TCNT_start>:
    1974:	ff010113          	addi	sp,sp,-16
    1978:	00112623          	sw	ra,12(sp)
    197c:	00812423          	sw	s0,8(sp)
    1980:	01010413          	addi	s0,sp,16
    1984:	810007b7          	lui	a5,0x81000
    1988:	0007a703          	lw	a4,0(a5) # 81000000 <counter+0x80ffc9a4>
    198c:	810007b7          	lui	a5,0x81000
    1990:	00376713          	ori	a4,a4,3
    1994:	00e7a023          	sw	a4,0(a5) # 81000000 <counter+0x80ffc9a4>
    1998:	00000013          	addi	zero,zero,0
    199c:	00c12083          	lw	ra,12(sp)
    19a0:	00812403          	lw	s0,8(sp)
    19a4:	01010113          	addi	sp,sp,16
    19a8:	00008067          	jalr	zero,0(ra)

000019ac <TCNT_start_div8>:
    19ac:	ff010113          	addi	sp,sp,-16
    19b0:	00112623          	sw	ra,12(sp)
    19b4:	00812423          	sw	s0,8(sp)
    19b8:	01010413          	addi	s0,sp,16
    19bc:	068000ef          	jal	ra,1a24 <TCNT_stop>
    19c0:	810007b7          	lui	a5,0x81000
    19c4:	0007a703          	lw	a4,0(a5) # 81000000 <counter+0x80ffc9a4>
    19c8:	810007b7          	lui	a5,0x81000
    19cc:	00176713          	ori	a4,a4,1
    19d0:	00e7a023          	sw	a4,0(a5) # 81000000 <counter+0x80ffc9a4>
    19d4:	00000013          	addi	zero,zero,0
    19d8:	00c12083          	lw	ra,12(sp)
    19dc:	00812403          	lw	s0,8(sp)
    19e0:	01010113          	addi	sp,sp,16
    19e4:	00008067          	jalr	zero,0(ra)

000019e8 <TCNT_start_div16>:
    19e8:	ff010113          	addi	sp,sp,-16
    19ec:	00112623          	sw	ra,12(sp)
    19f0:	00812423          	sw	s0,8(sp)
    19f4:	01010413          	addi	s0,sp,16
    19f8:	02c000ef          	jal	ra,1a24 <TCNT_stop>
    19fc:	810007b7          	lui	a5,0x81000
    1a00:	0007a703          	lw	a4,0(a5) # 81000000 <counter+0x80ffc9a4>
    1a04:	810007b7          	lui	a5,0x81000
    1a08:	00276713          	ori	a4,a4,2
    1a0c:	00e7a023          	sw	a4,0(a5) # 81000000 <counter+0x80ffc9a4>
    1a10:	00000013          	addi	zero,zero,0
    1a14:	00c12083          	lw	ra,12(sp)
    1a18:	00812403          	lw	s0,8(sp)
    1a1c:	01010113          	addi	sp,sp,16
    1a20:	00008067          	jalr	zero,0(ra)

00001a24 <TCNT_stop>:
    1a24:	ff010113          	addi	sp,sp,-16
    1a28:	00112623          	sw	ra,12(sp)
    1a2c:	00812423          	sw	s0,8(sp)
    1a30:	01010413          	addi	s0,sp,16
    1a34:	810007b7          	lui	a5,0x81000
    1a38:	0007a703          	lw	a4,0(a5) # 81000000 <counter+0x80ffc9a4>
    1a3c:	810007b7          	lui	a5,0x81000
    1a40:	ffc77713          	andi	a4,a4,-4
    1a44:	00e7a023          	sw	a4,0(a5) # 81000000 <counter+0x80ffc9a4>
    1a48:	00000013          	addi	zero,zero,0
    1a4c:	00c12083          	lw	ra,12(sp)
    1a50:	00812403          	lw	s0,8(sp)
    1a54:	01010113          	addi	sp,sp,16
    1a58:	00008067          	jalr	zero,0(ra)
